C51 COMPILER V9.51   COMMAND_PROCESSING                                                    10/12/2016 17:30:47 PAGE 1   


C51 COMPILER V9.51, COMPILATION OF MODULE COMMAND_PROCESSING
OBJECT MODULE PLACED IN .\DP8051_Keil_951\Release\command_processing.obj
COMPILER INVOKED BY: C:\Program Files (x86)\Cypress\PSoC Creator\3.3\PSoC Creator\import\keil\pk51\9.51\C51\BIN\c51.exe 
                    -.\command_processing.c NOIV LARGE MODDP2 OMF2 VB(1) NOIP INCDIR(.,Generated_Source\PSoC3) FF(3) DB DF(NDEBUG) WL(2) PR(.
                    -\DP8051_Keil_951\Release/command_processing.lst) CD OT(8,SPEED) OJ(.\DP8051_Keil_951\Release\command_processing.obj)

line level    source

*** MESSAGE C286 IN LINE 0 OF (null): license limits optimization to level 5
   1          // ----------------------------------------------------------------------------
   2          // Copyright (C)  qbrobotics. All rights reserved.
   3          // www.qbrobotics.com
   4          // ----------------------------------------------------------------------------
   5          
   6          
   7          /**
   8          * \file         command_processing.c
   9          *
  10          
  11          * \brief        Command processing functions.
  12          * \date         Dic. 1, 2015
  13          * \author       qbrobotics
  14          * \copyright    (C)  qbrobotics. All rights reserved.
  15          */
  16          
  17          //=================================================================     includes
  18          #include <command_processing.h>
  19          #include <stdio.h>
  20          #include <interruptions.h>
  21          #include <utils.h>
  22          
  23          #include "commands.h"
  24          
  25          //================================================================     variables
  26          
  27          reg8 * EEPROM_ADDR = (reg8 *) CYDEV_EE_BASE;
  28          
  29          //==============================================================================
  30          //                                                            RX DATA PROCESSING
  31          //==============================================================================
  32          //  This function checks for the availability of a data packet and process it:
  33          //      - Verify checksum;
  34          //      - Process commands;
  35          //==============================================================================
  36          
  37          void commProcess(){
  38   1          
  39   1          uint8 CYDATA rx_cmd;
  40   1          int16 ind;
  41   1      
  42   1          rx_cmd = g_rx.buffer[0];
  43   1      
  44   1      //==========================================================     verify checksum
  45   1      
  46   1          if (!(LCRChecksum(g_rx.buffer, g_rx.length - 1) == g_rx.buffer[g_rx.length - 1])){
  47   2              // Wrong checksum
  48   2              g_rx.ready = 0;
  49   2              return;
  50   2          }
  51   1      
  52   1          switch(rx_cmd){
C51 COMPILER V9.51   COMMAND_PROCESSING                                                    10/12/2016 17:30:47 PAGE 2   

  53   2      //=====================================================     CMD_GET_MEASUREMENTS
  54   2      
  55   2              case CMD_GET_MEASUREMENTS:
  56   2                  cmd_get_measurements();
  57   2                  break;
  58   2                  
  59   2      //============================================================     CMD_GET_INPUT
  60   2      
  61   2              case CMD_GET_INPUTS:
  62   2                  cmd_get_inputs();
  63   2                  break;
  64   2      
  65   2      //============================================================     CMD_SET_SERVO
  66   2              case CMD_SET_SERVO:
  67   2                  ind = *((int16 *) &g_rx.buffer[1]); 
  68   2                  set_servo(ind);
  69   2                  break;
  70   2                  
  71   2      //===============================================================     CMD_GET_IR
  72   2              case CMD_GET_IR:
  73   2                  cmd_get_ir();
  74   2                  break;
  75   2                  
  76   2      //============================================================     CMD_GET_SERVO
  77   2              case CMD_GET_SERVO:
  78   2                  cmd_get_servo();
  79   2                  break;
  80   2                  
  81   2      //============================================================     CMD_GET_FORCE
  82   2              case CMD_GET_FORCE:
  83   2                  cmd_get_force();
  84   2                  break;
  85   2                  
  86   2      //======================================================     CMD_GET_DUTY_CY_MAX
  87   2              case CMD_GET_DUTY_CY_MAX:
  88   2                  cmd_get_duty_cy_max();
  89   2                  break;
  90   2                  
  91   2      //=========================================================     CMD_GET_CURRENTS
  92   2      
  93   2              case CMD_GET_CURRENTS:
  94   2                  cmd_get_currents();
  95   2                  break;
  96   2      
  97   2      //====================================================     CMD_GET_CURR_AND_MEAS
  98   2      
  99   2              case CMD_GET_CURR_AND_MEAS:
 100   2                  cmd_get_curr_and_meas();
 101   2                  break;
 102   2                  
 103   2      //===========================================================     CMD_SET_INPUTS
 104   2      
 105   2              case CMD_SET_INPUTS:
 106   2                  cmd_set_inputs();
 107   2                  break;
 108   2                  
 109   2      //=======================================================     CMD_GET_VELOCITIES
 110   2      
 111   2              case CMD_GET_VELOCITIES:
 112   2                  cmd_get_velocities();
 113   2                  break;
 114   2      
C51 COMPILER V9.51   COMMAND_PROCESSING                                                    10/12/2016 17:30:47 PAGE 3   

 115   2      //=============================================================     CMD_ACTIVATE
 116   2              case CMD_ACTIVATE:
 117   2                  cmd_activate();
 118   2                  break;
 119   2                  
 120   2      //=============================================================     CMD_WATCHDOG
 121   2                  
 122   2              case CMD_SET_WATCHDOG:
 123   2                  cmd_set_watchdog();
 124   2                  break;
 125   2                  
 126   2      //=========================================================     CMD_GET_ACTIVATE
 127   2                  
 128   2              case CMD_GET_ACTIVATE:
 129   2                  cmd_get_activate();
 130   2                  break;
 131   2                  
 132   2      //=========================================================     CMD_SET_BAUDRATE
 133   2                  
 134   2              case CMD_SET_BAUDRATE:
 135   2                  cmd_set_baudrate();
 136   2                  break;  
 137   2                  
 138   2      //=============================================================     CMD_GET_INFO
 139   2                  
 140   2              case CMD_GET_INFO:
 141   2                  infoGet( *((uint16 *) &g_rx.buffer[1]));
 142   2                  break;
 143   2      
 144   2      //============================================================     CMD_SET_PARAM
 145   2                  
 146   2              case CMD_SET_ZEROS:
 147   2                  setZeros();
 148   2                  break;
 149   2      
 150   2      //============================================================     CMD_GET_PARAM
 151   2                  
 152   2              case CMD_GET_PARAM_LIST:
 153   2                  get_param_list( *((uint16 *) &g_rx.buffer[1]));
 154   2                  break;
 155   2      
 156   2      //=================================================================     CMD_PING
 157   2                  
 158   2              case CMD_PING:
 159   2                  cmd_ping();
 160   2                  break;
 161   2      
 162   2      //=========================================================     CMD_STORE_PARAMS
 163   2                  
 164   2              case CMD_STORE_PARAMS:
 165   2                  cmd_store_params();
 166   2                  break;
 167   2      
 168   2      //=================================================     CMD_STORE_DEFAULT_PARAMS
 169   2                  
 170   2              case CMD_STORE_DEFAULT_PARAMS:
 171   2                  if ( memStore(DEFAULT_EEPROM_DISPLACEMENT) ) {
 172   3                      sendAcknowledgment(ACK_OK);
 173   3                  } else {
 174   3                      sendAcknowledgment(ACK_ERROR);
 175   3                  }
 176   2                  break;
C51 COMPILER V9.51   COMMAND_PROCESSING                                                    10/12/2016 17:30:47 PAGE 4   

 177   2      
 178   2      //=======================================================     CMD_RESTORE_PARAMS
 179   2      
 180   2              case CMD_RESTORE_PARAMS:
 181   2                  if ( memRestore() ) {
 182   3                      sendAcknowledgment(ACK_OK);
 183   3                  } else {
 184   3                      sendAcknowledgment(ACK_ERROR);
 185   3                  }
 186   2                  break;
 187   2      
 188   2      //=============================================================     CMD_INIT_MEM
 189   2      
 190   2              case CMD_INIT_MEM:
 191   2                  if ( memInit() ) {
 192   3                      sendAcknowledgment(ACK_OK);
 193   3                  } else {
 194   3                      sendAcknowledgment(ACK_ERROR);
 195   3                  }
 196   2                  break;
 197   2      
 198   2      //===========================================================     CMD_BOOTLOADER
 199   2              case CMD_BOOTLOADER:
 200   2                  sendAcknowledgment(ACK_OK);
 201   2                  CyDelay(1000);
 202   2                  FTDI_ENABLE_REG_Write(0x00);
 203   2                  CyDelay(1000);
 204   2                  Bootloadable_Load();
 205   2                  break;
 206   2      
 207   2      //=========================================================== ALL OTHER COMMANDS
 208   2              default:
 209   2                  break;
 210   2      
 211   2          }
 212   1      }
 213          
 214          //==============================================================================
 215          //                                                              COMMAND GET INFO
 216          //==============================================================================
 217          
 218          void infoGet(uint16 info_type){
 219   1          unsigned char packet_string[1100];
 220   1      
 221   1      //======================================     choose info type and prepare string
 222   1      
 223   1          switch (info_type) {
 224   2              case INFO_ALL:
 225   2                  infoPrepare(packet_string);
 226   2                  UART_RS485_PutString(packet_string);
 227   2                  break;
 228   2              default:
 229   2                  break;
 230   2          }
 231   1      }
 232          
 233          //==============================================================================
 234          //                                                                     SET ZEROS
 235          //==============================================================================
 236          
 237          void setZeros()
 238          {
C51 COMPILER V9.51   COMMAND_PROCESSING                                                    10/12/2016 17:30:47 PAGE 5   

 239   1          uint8 CYDATA i;        // iterator
 240   1      
 241   1          for(i = 0; i < NUM_OF_SENSORS; ++i) {
 242   2              g_mem.m_off[i] = - *((int16 *) &g_rx.buffer[1 + i * 2]);
 243   2              // Encoder in the front of the motor
 244   2              g_mem.m_off[i] = -g_mem.m_off[i];
 245   2              g_mem.m_off[i] = g_mem.m_off[i] << g_mem.res[i];
 246   2      
 247   2              g_meas.rot[i] = 0;
 248   2          }
 249   1          reset_last_value_flag = 1;
 250   1      
 251   1          sendAcknowledgment(ACK_OK);
 252   1      }
 253          
 254          //==============================================================================
 255          //                                                            GET PARAMETER LIST
 256          //==============================================================================
 257          
 258          void get_param_list(uint16 index)
 259          {
 260   1          //Package to be sent variables
 261   1          uint8 packet_data[1351] = "";
 262   1          uint16 packet_lenght = 1351;
 263   1      
 264   1          //Auxiliary variables
 265   1          uint16 CYDATA i;
 266   1          uint8 string_lenght;
 267   1          int32 aux_int;
 268   1      
 269   1          //Parameters menu string definitions
 270   1          char id_str[15]             = "1 - Device ID:";
 271   1          char pos_pid_str[28]        = "2 - Position PID [P, I, D]:";
 272   1          char startup_str[28]        = "3 - Startup Activation:";
 273   1          char res_str[17]            = "4 - Resolutions:";
 274   1          char m_off_str[25]          = "5 - Measurement Offsets:";
 275   1          char mult_str[17]           = "6 - Multipliers:";
 276   1          char pos_lim_flag_str[28]   = "7 - Pos. limit active:";
 277   1          char pos_lim_str[28]        = "8 - Pos. limits [inf, sup]:";
 278   1          char max_step_str[26]       = "9 - Max steps [neg, pos]:";
 279   1          char curr_limit_str[20]     = "10 - Current limit:";
 280   1          char pulse_mod_str[28]      = "11 - Pulse modality:";
 281   1          char pressure_bounds_str[35]= "12 - Pressure bounds [max, min]:";
 282   1          char pulse_freq_str[22]     = "13 - Pulse frequency:";
 283   1          char pow_tension_str[22]    = "14 - Power tension:";
 284   1          
 285   1          //Parameters menus
 286   1          char yes_no_menu[42] = "0 -> Deactivate [NO]\n1 -> Activate [YES]\n";
 287   1      
 288   1          //Strings lenghts
 289   1          uint8 CYDATA id_str_len = strlen(id_str);
 290   1          uint8 CYDATA pos_pid_str_len = strlen(pos_pid_str);
 291   1      
 292   1          uint8 CYDATA res_str_len = strlen(res_str);
 293   1          uint8 CYDATA m_off_str_len = strlen(m_off_str);
 294   1          uint8 CYDATA mult_str_len = strlen(mult_str);
 295   1      
 296   1          uint8 CYDATA pos_lim_str_len = strlen(pos_lim_str);
 297   1          uint8 CYDATA curr_limit_str_len = strlen(curr_limit_str);
 298   1          
 299   1          uint8 CYDATA pow_tension_str_len = strlen(pow_tension_str);
 300   1          
C51 COMPILER V9.51   COMMAND_PROCESSING                                                    10/12/2016 17:30:47 PAGE 6   

 301   1          uint8 CYDATA yes_no_menu_len = strlen(yes_no_menu);
 302   1      
 303   1          packet_data[0] = CMD_GET_PARAM_LIST;
 304   1          packet_data[1] = NUM_OF_PARAMS;
 305   1      
 306   1          switch(index) {
 307   2              case 0:         //List of all parameters with relative types
 308   2                  /*-----------------ID-----------------*/
 309   2      
 310   2                  packet_data[2] = TYPE_UINT8;
 311   2                  packet_data[3] = 1;
 312   2                  packet_data[4] = c_mem.id;
 313   2                  for(i = id_str_len; i != 0; i--)
 314   2                      packet_data[5 + id_str_len - i] = id_str[id_str_len - i];
 315   2      
 316   2                  /*-------------POSITION PID-----------*/
 317   2      
 318   2                  packet_data[52] = TYPE_FLOAT;
 319   2                  packet_data[53] = 3;
 320   2                  *((float *) (packet_data + 54)) = (float) c_mem.k_p / 65536;
 321   2                  *((float *) (packet_data + 58)) = (float) c_mem.k_i / 65536;
 322   2                  *((float *) (packet_data + 62)) = (float) c_mem.k_d / 65536;
 323   2                  for(i = pos_pid_str_len; i != 0; i--)
 324   2                      packet_data[66 + pos_pid_str_len - i] = pos_pid_str[pos_pid_str_len - i];
 325   2      
 326   2                  /*----------STARTUP ACTIVATION--------*/
 327   2      
 328   2                  packet_data[102] = TYPE_FLAG;
 329   2                  packet_data[103] = 1;
 330   2                  packet_data[104] = c_mem.activ;
 331   2                  if(c_mem.activ) {
 332   3                      strcat(startup_str, " YES\0");
 333   3                      string_lenght = 28;
 334   3                  }
 335   2                  else {
 336   3                      strcat(startup_str, " NO\0");
 337   3                      string_lenght = 27;
 338   3                  }
 339   2                  for(i = string_lenght; i != 0; i--)
 340   2                      packet_data[105 + string_lenght - i] = startup_str[string_lenght - i];
 341   2                  //The following byte indicates the number of menus at the end of the packet to send
 342   2                  packet_data[105 + string_lenght]  = 3;
 343   2                  
 344   2                  /*-------------RESOLUTIONS------------*/
 345   2                  
 346   2                  packet_data[152] = TYPE_UINT8;
 347   2                  packet_data[153] = 3;
 348   2                  for(i = 0; i < NUM_OF_SENSORS; i++)
 349   2                      packet_data[i + 154] = c_mem.res[i];
 350   2                  for(i = res_str_len; i != 0; i--)
 351   2                      packet_data[157 + res_str_len - i] = res_str[res_str_len - i];
 352   2                  
 353   2                  /*----------MEASUREMENT OFFSET--------*/
 354   2                  
 355   2                  packet_data[202] = TYPE_INT16;
 356   2                  packet_data[203] = 3;
 357   2                  for(i = 0; i < NUM_OF_SENSORS; i++) 
 358   2                      *((int16 *) ( packet_data + 204 + (i * 2) )) = (int16) (c_mem.m_off[i] >> c_mem.res[i]);
 359   2                  for(i = m_off_str_len; i != 0; i--)
 360   2                      packet_data[210 + m_off_str_len - i] = m_off_str[m_off_str_len - i];
 361   2                  
 362   2                  /*------------MULTIPLIERS-------------*/
C51 COMPILER V9.51   COMMAND_PROCESSING                                                    10/12/2016 17:30:47 PAGE 7   

 363   2                  
 364   2                  packet_data[252] = TYPE_FLOAT;
 365   2                  packet_data[253] = 3;
 366   2                  for(i = 0; i < NUM_OF_SENSORS; i++)
 367   2                      *((float *) ( packet_data + 254 + (i * 4) )) = c_mem.m_mult[i];
 368   2                  for(i = 0; i < strlen(mult_str); i++)
 369   2                      packet_data[266 + i] = mult_str[i];
 370   2      
 371   2                  /*-----------POS LIMIT FLAG-----------*/
 372   2                  
 373   2                  packet_data[302] = TYPE_FLAG;
 374   2                  packet_data[303] = 1;
 375   2                  packet_data[304] = c_mem.pos_lim_flag;
 376   2                  if(c_mem.pos_lim_flag) {
 377   3                      strcat(pos_lim_flag_str, " YES\0");
 378   3                      string_lenght = 28;
 379   3                  }
 380   2                  else {
 381   3                      strcat(pos_lim_flag_str, " NO\0");
 382   3                      string_lenght = 27;
 383   3                  }
 384   2                  for(i = string_lenght; i != 0; i--)
 385   2                      packet_data[305 + string_lenght - i] = pos_lim_flag_str[string_lenght - i];
 386   2                  //The following byte indicates the number of menus at the end of the packet to send
 387   2                  packet_data[305 + string_lenght] = 3;
 388   2                  
 389   2                  /*-----------POSITION LIMITS----------*/
 390   2                  
 391   2                  packet_data[352] = TYPE_INT32;
 392   2                  packet_data[353] = 4;
 393   2                  for (i = 0; i < NUM_OF_MOTORS; i++) {
 394   3                      *((int32 *)( packet_data + 354 + (i * 2 * 4) )) = (c_mem.pos_lim_inf[i] >> c_mem.res[i]);
 395   3                      *((int32 *)( packet_data + 354 + (i * 2 * 4) + 4)) = (c_mem.pos_lim_sup[i] >> c_mem.res[i]
             -);
 396   3                  }
 397   2                  for(i = pos_lim_str_len; i != 0; i--)
 398   2                      packet_data[370 + pos_lim_str_len - i] = pos_lim_str[pos_lim_str_len - i];
 399   2      
 400   2                  /*--------------MAX STEPS-------------*/
 401   2                  
 402   2                  packet_data[402] = TYPE_INT32;
 403   2                  packet_data[403] = 2;
 404   2                  *((int32 *)(packet_data + 404)) = c_mem.max_step_neg;
 405   2                  *((int32 *)(packet_data + 408)) = c_mem.max_step_pos;
 406   2                  for(i = 0; i < strlen(max_step_str); i++)
 407   2                      packet_data[412 + i] = max_step_str[i];
 408   2      
 409   2                  /*------------CURRENT LIMIT-----------*/
 410   2      
 411   2                  packet_data[452] = TYPE_INT16;
 412   2                  packet_data[453] = 1;
 413   2                  *((int16 *)(packet_data + 454)) = c_mem.current_limit;
 414   2                  for(i = curr_limit_str_len; i != 0; i--)
 415   2                      packet_data[456 + curr_limit_str_len - i] = curr_limit_str[curr_limit_str_len - i];
 416   2      
 417   2                  /*-----------PULSE MODALITY-----------*/
 418   2      
 419   2                  packet_data[502] = TYPE_FLAG;
 420   2                  packet_data[503] = 1;
 421   2                  packet_data[504] = c_mem.flag_pulse;
 422   2                  if(c_mem.flag_pulse) {
 423   3                      strcat(pulse_mod_str, " YES\0");
C51 COMPILER V9.51   COMMAND_PROCESSING                                                    10/12/2016 17:30:47 PAGE 8   

 424   3                      string_lenght = 28;
 425   3                  }
 426   2                  else {
 427   3                      strcat(pulse_mod_str, " NO\0");
 428   3                      string_lenght = 27;
 429   3                  }
 430   2                  for(i = string_lenght; i != 0; i--)
 431   2                      packet_data[505 + string_lenght - i] = pulse_mod_str[string_lenght - i];
 432   2                  //The following byte indicates the number of menus at the end of the packet to send
 433   2                  packet_data[505 + string_lenght]  = 3;
 434   2      
 435   2                  /*-----------PRESSURE BOUNDS----------*/
 436   2      
 437   2                  packet_data[552] = TYPE_INT32;
 438   2                  packet_data[553] = 2;
 439   2                  *((int32 *)(packet_data + 554)) = c_mem.thr_max_pressure;
 440   2                  *((int32 *)(packet_data + 558)) = c_mem.thr_min_pressure;
 441   2                  for(i = 0; i < strlen(pressure_bounds_str); i++)
 442   2                      packet_data[562 + i] = pressure_bounds_str[i];
 443   2      
 444   2                  /*----------PULSE FREQUENCY-----------*/
 445   2      
 446   2                  packet_data[602] = TYPE_INT32;
 447   2                  packet_data[603] = 1;
 448   2                  *((int32 *)(packet_data + 604)) = c_mem.pulse_freq;
 449   2                  for(i = 0; i < strlen(max_step_str); i++)
 450   2                      packet_data[608 + i] = pulse_freq_str[i];
 451   2      
 452   2                  /*------------POWER TENSION----------*/
 453   2      
 454   2                  packet_data[652] = TYPE_UINT16;
 455   2                  packet_data[653] = 1;
 456   2                  *((uint16 *)(packet_data + 654)) = c_mem.power_tension;
 457   2                  for(i = pow_tension_str_len; i!= 0; i--)
 458   2                      packet_data[656 + pow_tension_str_len - i] = pow_tension_str[pow_tension_str_len - i];
 459   2      
 460   2                  /*-----------PARAMETERS MENU----------*/
 461   2                      
 462   2                  for(i = yes_no_menu_len; i!= 0; i--)
 463   2                      packet_data[702 + yes_no_menu_len - i] = yes_no_menu[yes_no_menu_len - i];
 464   2      
 465   2                  packet_data[packet_lenght - 1] = LCRChecksum(packet_data,packet_lenght - 1);
 466   2                  commWrite(packet_data, packet_lenght, FALSE);
 467   2                  UART_RS485_ClearTxBuffer();
 468   2              break;
 469   2      
 470   2      //===================================================================     set_id
 471   2              case 1:         //ID - uint8
 472   2                  g_mem.id = g_rx.buffer[3];
 473   2              break;
 474   2              
 475   2      //=======================================================     set_pid_parameters
 476   2              case 2:         //Position PID - float[3]
 477   2                  g_mem.k_p = *((float *) &g_rx.buffer[3]) * 65536;
 478   2                  g_mem.k_i = *((float *) &g_rx.buffer[3 + 4]) * 65536;
 479   2                  g_mem.k_d = *((float *) &g_rx.buffer[3 + 8]) * 65536;
 480   2              break;
 481   2      
 482   2      //===================================================     set_startup_activation        
 483   2              case 3:         //Startup flag - uint8
 484   2                  if (g_rx.buffer[3])
 485   2                      g_mem.activ = 0x03;
C51 COMPILER V9.51   COMMAND_PROCESSING                                                    10/12/2016 17:30:47 PAGE 9   

 486   2                  else
 487   2                      g_mem.activ = 0x00;
 488   2              break;
 489   2              
 490   2      //===========================================================     set_resolution
 491   2              case 4:         //Resolution - uint8[3]
 492   2                  for (i =0; i < NUM_OF_SENSORS; i++)
 493   2                      g_mem.res[i] = g_rx.buffer[i+3];
 494   2              break;
 495   2              
 496   2      //===============================================================     set_offset
 497   2              case 5:         //Measurement Offset - int32[3] 
 498   2                  for(i = 0; i < NUM_OF_SENSORS; ++i) {
 499   3                      g_mem.m_off[i] = *((int16 *) &g_rx.buffer[3 + i * 2]);
 500   3                      g_mem.m_off[i] = g_mem.m_off[i] << g_mem.res[i];
 501   3      
 502   3                      g_meas.rot[i] = 0;
 503   3                  }
 504   2                  reset_last_value_flag = 1;
 505   2              break;
 506   2              
 507   2      //===========================================================     set_multiplier
 508   2              case 6:         //Multipliers - float[3]
 509   2                  for(i = 0; i < NUM_OF_SENSORS; ++i)
 510   2                      g_mem.m_mult[i] = *((float *) &g_rx.buffer[3 + i * 4]);
 511   2              break;
 512   2              
 513   2      //=====================================================     set_pos_limit_enable
 514   2              case 7:        //Position limit flag - uint8
 515   2                  g_mem.pos_lim_flag = *((uint8 *) &g_rx.buffer[3]);
 516   2              break;
 517   2      
 518   2      //============================================================     set_pos_limit
 519   2              case 8:        //Position limits - int32[4]
 520   2                  for (i = 0; i < NUM_OF_MOTORS; i++) {
 521   3                      g_mem.pos_lim_inf[i] = *((int32 *) &g_rx.buffer[3 + (i * 2 * 4)]);
 522   3                      g_mem.pos_lim_sup[i] = *((int32 *) &g_rx.buffer[3 + (i * 2 * 4) + 4]);
 523   3      
 524   3                      g_mem.pos_lim_inf[i] = g_mem.pos_lim_inf[i] << g_mem.res[i];
 525   3                      g_mem.pos_lim_sup[i] = g_mem.pos_lim_sup[i] << g_mem.res[i];
 526   3                  }
 527   2              break;
 528   2      
 529   2      //==================================================     set_max_steps_per_cycle
 530   2              case 9:        //Max steps - int32[2]
 531   2                  aux_int = *((int32 *) &g_rx.buffer[3]);
 532   2                  if (aux_int <= 0)
 533   2                      g_mem.max_step_neg = aux_int;
 534   2      
 535   2                  aux_int = *((int32 *) &g_rx.buffer[3 + 4]);
 536   2                  if (aux_int >= 0) 
 537   2                      g_mem.max_step_pos = aux_int;
 538   2              break;
 539   2              
 540   2      //========================================================     set_current_limit
 541   2              case 10:        //Current limit - int16
 542   2                  g_mem.current_limit = *((int16*) &g_rx.buffer[3]);
 543   2              break;
 544   2      
 545   2      //=======================================================     set_pulse_modality
 546   2              case 11:
 547   2                  g_mem.flag_pulse = g_rx.buffer[3];
C51 COMPILER V9.51   COMMAND_PROCESSING                                                    10/12/2016 17:30:47 PAGE 10  

 548   2                  
 549   2                  if (g_mem.flag_pulse) {
 550   3                      g_ref.onoff = 0x03;
 551   3                      MOTOR_ON_OFF_Write(g_ref.onoff);
 552   3                      g_ref.pos[0] = ((int16)-2276) << c_mem.res[0];
 553   3                      g_ref.pos[1] = ((int16)2276) << c_mem.res[1];
 554   3                  } else {
 555   3                      g_ref.pos[0] = ((int16)0) << c_mem.res[0];
 556   3                      g_ref.pos[1] = ((int16)0) << c_mem.res[1];
 557   3                      g_ref.onoff = 0x00;
 558   3                      MOTOR_ON_OFF_Write(g_ref.onoff);
 559   3                  }
 560   2              break;
 561   2      
 562   2      //======================================================     set_pressure_bounds
 563   2              case 12: 
 564   2                  g_mem.thr_max_pressure = *((int32 *) &g_rx.buffer[3]);
 565   2                  g_mem.thr_min_pressure = *((int32 *) &g_rx.buffer[3 + 4]);
 566   2              break;
 567   2      
 568   2      //======================================================     set_pulse_frequency
 569   2              case 13:
 570   2                  g_mem.pulse_freq = *((int32 *) &g_rx.buffer[3]);
 571   2              break;
 572   2      
 573   2      //========================================================     set_power_tension
 574   2              case 14:
 575   2                  g_mem.power_tension = *((uint16*) &g_rx.buffer[3]);
 576   2              break;
 577   2          }
 578   1      }
 579          
 580          //==============================================================================
 581          //                                                           PREPARE DEVICE INFO
 582          //==============================================================================
 583          
 584          void infoPrepare(unsigned char *info_string)
 585          {
 586   1          int CYDATA i;
 587   1      
 588   1          unsigned char str[50];
 589   1          
 590   1          strcpy(info_string, "");
 591   1          strcat(info_string, "\r\n");
 592   1          strcat(info_string, "Firmware version: ");
 593   1          strcat(info_string, VERSION);
 594   1          strcat(info_string, ".\r\n\r\n");
 595   1      
 596   1          strcat(info_string, "DEVICE INFO\r\n");
 597   1          sprintf(str, "ID: %d\r\n", (int) c_mem.id);
 598   1          strcat(info_string, str);
 599   1          sprintf(str, "Number of sensors: %d\r\n", (int) NUM_OF_SENSORS);
 600   1          strcat(info_string, str);
 601   1          sprintf(str, "Supply tension: %d\r\n", c_mem.power_tension);
 602   1          strcat(info_string, str);
 603   1          sprintf(str, "PWM Limit: %d\r\n", (int) dev_pwm_limit);
 604   1          strcat(info_string, str);
 605   1          strcat(info_string, "\r\n");
 606   1      
 607   1          strcat(info_string, "MOTOR INFO\r\n");
 608   1          strcat(info_string, "Motor references: ");
 609   1          
C51 COMPILER V9.51   COMMAND_PROCESSING                                                    10/12/2016 17:30:47 PAGE 11  

 610   1          for (i = 0; i < NUM_OF_MOTORS; i++) {
 611   2              sprintf(str, "%d ", (int)(g_refOld.pos[i] >> c_mem.res[i]));
 612   2              strcat(info_string,str);
 613   2          }
 614   1          strcat(info_string,"\r\n");
 615   1      
 616   1          sprintf(str, "Motor enabled: ");
 617   1          
 618   1          if (g_refOld.onoff & 0x03) {
 619   2              strcat(str,"YES\r\n");
 620   2          } else {
 621   2              strcat(str,"NO\r\n");
 622   2          }
 623   1          strcat(info_string, str);
 624   1      
 625   1      
 626   1          strcat(info_string,"\r\nMEASUREMENTS INFO\r\n");
 627   1          strcat(info_string, "Sensor value:\r\n");
 628   1          for (i = 0; i < NUM_OF_SENSORS; i++) {
 629   2              sprintf(str,"%d -> %d", i+1,
 630   2                  (int)(g_measOld.pos[i] >> c_mem.res[i]));
 631   2              strcat(info_string, str);
 632   2              strcat(info_string, "\r\n");
 633   2          }
 634   1          sprintf(str,"Voltage (mV): %ld", (int32) dev_tension );
 635   1          strcat(info_string, str);
 636   1          strcat(info_string,"\r\n");
 637   1      
 638   1          sprintf(str,"Current 1 (mA): %ld", (int32) g_measOld.curr[0] );
 639   1          strcat(info_string, str);
 640   1          strcat(info_string,"\r\n");
 641   1      
 642   1          sprintf(str,"Current 2 (mA): %ld", (int32) g_measOld.curr[1] );
 643   1          strcat(info_string, str);
 644   1          strcat(info_string,"\r\n");
 645   1      
 646   1      
 647   1          strcat(info_string, "\r\nDEVICE PARAMETERS\r\n");
 648   1      
 649   1          strcat(info_string, "PID Controller:\r\n");
 650   1          sprintf(str,"P -> %f\r\n", ((double) c_mem.k_p / 65536));
 651   1          strcat(info_string, str);
 652   1          sprintf(str,"I -> %f\r\n", ((double) c_mem.k_i / 65536));
 653   1          strcat(info_string, str);
 654   1          sprintf(str,"D -> %f\r\n", ((double) c_mem.k_d / 65536));
 655   1          strcat(info_string, str);
 656   1      
 657   1          strcat(info_string,"\r\n");
 658   1      
 659   1          if (c_mem.activ == 0x03) {
 660   2              strcat(info_string, "Startup activation: YES\r\n");
 661   2          } else {
 662   2              strcat(info_string, "Startup activation: NO\r\n");
 663   2          }
 664   1      
 665   1          strcat(info_string, "Sensor resolution:\r\n");
 666   1          for(i = 0; i < NUM_OF_SENSORS; ++i)
 667   1          {
 668   2              sprintf(str,"%d -> %d", (int) (i + 1),
 669   2                  (int) c_mem.res[i]);
 670   2              strcat(info_string, str);
 671   2              strcat(info_string,"\r\n");
C51 COMPILER V9.51   COMMAND_PROCESSING                                                    10/12/2016 17:30:47 PAGE 12  

 672   2          }
 673   1      
 674   1      
 675   1          strcat(info_string, "Measurement Offset:\r\n");
 676   1          for(i = 0; i < NUM_OF_SENSORS; ++i)
 677   1          {
 678   2              sprintf(str,"%d -> %ld", (int) (i + 1),
 679   2                  (int32) c_mem.m_off[i] >> c_mem.res[i]);
 680   2              strcat(info_string, str);
 681   2              strcat(info_string,"\r\n");
 682   2          }
 683   1      
 684   1          strcat(info_string, "Measurement Multiplier:\r\n");
 685   1          for(i = 0; i < NUM_OF_SENSORS; ++i)
 686   1          {
 687   2              sprintf(str,"%d -> %f", (int)(i + 1),
 688   2                  (double) c_mem.m_mult[i]);
 689   2              strcat(info_string, str);
 690   2              strcat(info_string,"\r\n");
 691   2          }
 692   1      
 693   1          sprintf(str, "Position limit active: %d", (int)g_mem.pos_lim_flag);
 694   1          strcat(info_string, str);
 695   1          strcat(info_string,"\r\n");
 696   1      
 697   1          for (i = 0; i < NUM_OF_MOTORS; i++) {
 698   2              sprintf(str, "Position limit motor %d: inf -> %ld  ", (int)(i + 1),
 699   2                      (int32)g_mem.pos_lim_inf[i] >> g_mem.res[i]);
 700   2              strcat(info_string, str);
 701   2      
 702   2              sprintf(str, "sup -> %ld\r\n",
 703   2                      (int32)g_mem.pos_lim_sup[i] >> g_mem.res[i]);
 704   2              strcat(info_string, str);
 705   2          }
 706   1      
 707   1          sprintf(str, "Max stiffness: %d", (int)g_mem.max_stiffness >> g_mem.res[0]);
 708   1          strcat(info_string, str);
 709   1          strcat(info_string,"\r\n");
 710   1      
 711   1          sprintf(str, "Current limit: %d", (int)g_mem.current_limit);
 712   1          strcat(info_string, str);
 713   1          strcat(info_string,"\r\n");
 714   1          
 715   1          sprintf(str, "Force: %d", (int)g_meas.force);
 716   1          strcat(info_string, str);
 717   1          strcat(info_string,"\r\n");
 718   1          
 719   1          sprintf(str, "IR: %d", (int)g_meas.ir);
 720   1          strcat(info_string, str);
 721   1          strcat(info_string,"\r\n");
 722   1          
 723   1          sprintf(str, "debug: %ld", (uint32) timer_value0 - (uint32) timer_value);
 724   1          strcat(info_string, str);
 725   1          strcat(info_string, "\r\n");
 726   1      }
 727          
 728          //==============================================================================
 729          //                                                     WRITE FUNCTIONS FOR RS485
 730          //==============================================================================
 731          
 732          void commWrite_old_id(uint8 *packet_data, uint16 packet_lenght, uint8 old_id)
 733          {
C51 COMPILER V9.51   COMMAND_PROCESSING                                                    10/12/2016 17:30:47 PAGE 13  

 734   1          uint16 CYDATA index;    // iterator
 735   1      
 736   1          // frame - start
 737   1          UART_RS485_PutChar(':');
 738   1          UART_RS485_PutChar(':');
 739   1          // frame - ID
 740   1          //if(old_id)
 741   1              UART_RS485_PutChar(old_id);
 742   1          //else
 743   1              //UART_RS485_PutChar(g_mem.id);
 744   1              
 745   1          // frame - length
 746   1          UART_RS485_PutChar((uint8)packet_lenght);
 747   1          // frame - packet data
 748   1          for(index = 0; index < packet_lenght; ++index) {
 749   2              UART_RS485_PutChar(packet_data[index]);
 750   2          }
 751   1      
 752   1          index = 0;
 753   1      
 754   1          while(!(UART_RS485_ReadTxStatus() & UART_RS485_TX_STS_COMPLETE) && index++ <= 1000){}
 755   1      
 756   1          RS485_CTS_Write(1);
 757   1          RS485_CTS_Write(0);
 758   1      }
 759          
 760          void commWrite(uint8 *packet_data,const uint16 packet_lenght, uint8 next)
 761          {
 762   1          uint16 CYDATA index;
 763   1      
 764   1          // frame - start
 765   1          UART_RS485_PutChar(':');
 766   1          UART_RS485_PutChar(':');
 767   1          
 768   1          // frame - ID
 769   1          if(next)
 770   1          // If next flag is set the message is sent to the device with ID with value
 771   1          // greater by one than the one that sends the message
 772   1              UART_RS485_PutChar((uint8) g_mem.id + 1);
 773   1          else
 774   1              UART_RS485_PutChar((uint8) g_mem.id);
 775   1          
 776   1          // frame - length
 777   1          UART_RS485_PutChar((uint8)packet_lenght);
 778   1          
 779   1          // frame - packet data
 780   1          for(index = 0; index < packet_lenght; ++index)
 781   1              UART_RS485_PutChar(packet_data[index]);
 782   1          
 783   1          index = 0;
 784   1      
 785   1          while(!(UART_RS485_ReadTxStatus() & UART_RS485_TX_STS_COMPLETE) && index++ <= 1000){}
 786   1      
 787   1          if(!next) {
 788   2              RS485_CTS_Write(1);
 789   2              RS485_CTS_Write(0);
 790   2          }
 791   1      }
 792          
 793          //==============================================================================
 794          //                                                       ACKNOWLEDGMENT FUNCTION
 795          //==============================================================================
C51 COMPILER V9.51   COMMAND_PROCESSING                                                    10/12/2016 17:30:47 PAGE 14  

 796          
 797          void sendAcknowledgment(const uint8 value) {
 798   1      
 799   1          // Packet: header + crc
 800   1          
 801   1          uint8 CYDATA packet_data[2];
 802   1      
 803   1          // Header
 804   1          packet_data[0] = value;
 805   1          
 806   1          // Payload/CRC
 807   1          packet_data[1] = value;
 808   1      
 809   1          commWrite(packet_data, 2, FALSE);
 810   1      }
 811          
 812          //==============================================================================
 813          //                                                                  STORE MEMORY
 814          //==============================================================================
 815          /**
 816          * This function stores current memory settings on the eeprom with the specified
 817          * displacement
 818          **/
 819          
 820          uint8 memStore(int displacement) {
 821   1      
 822   1          uint8 writeStatus;
 823   1          int i;
 824   1          int pages;
 825   1          uint8 ret_val = 1;
 826   1      
 827   1          PWM_MOTORS_WriteCompare1(0);
 828   1          PWM_MOTORS_WriteCompare2(0);
 829   1      
 830   1          // Retrieve temperature for better writing performance
 831   1          EEPROM_UpdateTemperature();
 832   1      
 833   1          memcpy( &c_mem, &g_mem, sizeof(g_mem) );
 834   1      
 835   1          pages = sizeof(g_mem) / 16 + (sizeof(g_mem) % 16 > 0);
 836   1      
 837   1          for(i = 0; i < pages; ++i) {
 838   2              writeStatus = EEPROM_Write(&g_mem.flag + 16 * i, i + displacement);
 839   2              if(writeStatus != CYRET_SUCCESS) {
 840   3                  ret_val = 0;
 841   3                  break;
 842   3              }
 843   2          }
 844   1      
 845   1          memcpy( &g_mem, &c_mem, sizeof(g_mem) );
 846   1      
 847   1          return ret_val;
 848   1      }
 849          
 850          
 851          //==============================================================================
 852          //                                                                 RECALL MEMORY
 853          //==============================================================================
 854          /**
 855          * This function loads user settings from the eeprom.
 856          **/
 857          
C51 COMPILER V9.51   COMMAND_PROCESSING                                                    10/12/2016 17:30:47 PAGE 15  

 858          void memRecall(void) {
 859   1      
 860   1          uint16 i;
 861   1      
 862   1          for (i = 0; i < sizeof(g_mem); i++) 
 863   1              ((reg8 *) &g_mem.flag)[i] = EEPROM_ADDR[i];
 864   1         
 865   1      
 866   1          //check for initialization
 867   1          if (g_mem.flag == FALSE) 
 868   1              memRestore();
 869   1          else 
 870   1              memcpy( &c_mem, &g_mem, sizeof(g_mem) );
 871   1          
 872   1      }
 873          
 874          
 875          //==============================================================================
 876          //                                                                RESTORE MEMORY
 877          //==============================================================================
 878          /**
 879          * This function loads default settings from the eeprom.
 880          **/
 881          
 882          uint8 memRestore(void) {
 883   1      
 884   1          uint16 i;
 885   1      
 886   1          for (i = 0; i < sizeof(g_mem); i++) 
 887   1              ((reg8 *) &g_mem.flag)[i] = EEPROM_ADDR[i + (DEFAULT_EEPROM_DISPLACEMENT * 16)];
 888   1          
 889   1      
 890   1          //check for initialization
 891   1          if (g_mem.flag == FALSE) 
 892   1              return memInit();
 893   1           else 
 894   1              return memStore(0);
 895   1         
 896   1      }
 897          
 898          //==============================================================================
 899          //                                                                   MEMORY INIT
 900          //==============================================================================
 901          /**
 902          * This function initialize memory when eeprom is compromised.
 903          **/
 904          
 905          uint8 memInit(void) {
 906   1      
 907   1          uint8 CYDATA i;
 908   1          //initialize memory settings
 909   1          g_mem.id                =   1;
 910   1          g_mem.k_p               =   0.1 * 65536;
 911   1          g_mem.k_i               =   0 * 65536;
 912   1          g_mem.k_d               =   0.8 * 65536;
 913   1          
 914   1          g_mem.activ             =   1;
 915   1          g_mem.watchdog_period   =   0; //MAX_WATCHDOG_TIMER;
 916   1      
 917   1          g_mem.pos_lim_flag = 1;
 918   1          
 919   1          for(i = 0; i < NUM_OF_SENSORS; ++i)
C51 COMPILER V9.51   COMMAND_PROCESSING                                                    10/12/2016 17:30:47 PAGE 16  

 920   1          {
 921   2              g_mem.m_mult[i] = 1;
 922   2              g_mem.res[i] = 3;
 923   2          }
 924   1      
 925   1          for (i = 0; i < NUM_OF_MOTORS; i++) {
 926   2              g_mem.pos_lim_inf[i] = -15000 << g_mem.res[i];
 927   2              g_mem.pos_lim_sup[i] =  15000 << g_mem.res[i];
 928   2          }
 929   1          
 930   1          g_mem.thr_max_pressure = 120;
 931   1          g_mem.thr_max_force = DEFAULT_MAX_FORCE_PULSE;  // Correspond to 120mmHg
 932   1          g_mem.thr_min_pressure = 60;
 933   1          g_mem.thr_min_force = DEFAULT_MIN_FORCE_PULSE;  // correspond to 60mmHg
 934   1          g_mem.step_const = 0.00183;                     // Freq = 110bpm
 935   1          g_mem.pulse_freq = 110;
 936   1          g_mem.flag_pulse = 0;
 937   1          
 938   1          g_mem.power_tension = 6000;         //mV of needed supply power
 939   1      
 940   1          g_mem.m_off[0] = (int32)0 << g_mem.res[0];
 941   1          g_mem.m_off[1] = (int32)0 << g_mem.res[1];
 942   1      
 943   1          g_mem.max_stiffness = (int32)3000 << g_mem.res[0];
 944   1      
 945   1          g_mem.current_limit = DEFAULT_CURRENT_LIMIT;
 946   1      
 947   1          //set the initialized flag to show EEPROM has been populated
 948   1          g_mem.flag = TRUE;
 949   1      
 950   1          //write that configuration to EEPROM
 951   1          return ( memStore(0) && memStore(DEFAULT_EEPROM_DISPLACEMENT) );
 952   1      }
 953          
 954          //==============================================================================
 955          //                                                    ROUTINE INTERRUPT FUNCTION
 956          //==============================================================================
 957          /**
 958          * Bunch of functions used on request from UART communication
 959          **/
 960          
 961          void cmd_get_measurements(){
 962   1         
 963   1          
 964   1          uint8 CYDATA index;
 965   1         
 966   1          // Packet: header + measure(int16) + crc
 967   1          
 968   1          uint8 packet_data[6];
 969   1      
 970   1          //Header package
 971   1          packet_data[0] = CMD_GET_MEASUREMENTS;   
 972   1          
 973   1          for (index = NUM_OF_SENSORS; index--;) 
 974   1              *((int16 *) &packet_data[(index << 1) + 1]) = (int16)(g_measOld.pos[index] >> g_mem.res[index]);
 975   1                  
 976   1          // Calculate Checksum and send message to UART 
 977   1      
 978   1          packet_data[5] = LCRChecksum (packet_data, 5);
 979   1          commWrite(packet_data, 6, FALSE);
 980   1          
 981   1      }
C51 COMPILER V9.51   COMMAND_PROCESSING                                                    10/12/2016 17:30:47 PAGE 17  

 982          
 983          void cmd_get_inputs(){
 984   1      
 985   1          // Packet: header + motor_measure(int16) + crc
 986   1      
 987   1          uint8 packet_data[6]; 
 988   1          
 989   1          //Header package
 990   1      
 991   1          packet_data[0] = CMD_GET_INPUTS;
 992   1          
 993   1          *((int16 *) &packet_data[1]) = (int16) (g_refOld.pos[0]  >> g_mem.res[0]);
 994   1          *((int16 *) &packet_data[3]) = (int16) (g_refOld.pos[1]  >> g_mem.res[1]);
 995   1          
 996   1          // Calculate Checksum and send message to UART 
 997   1      
 998   1          packet_data[5] = LCRChecksum(packet_data, 5);
 999   1      
1000   1          commWrite(packet_data, 6, FALSE);
1001   1      
1002   1      }
1003          
1004          void cmd_get_currents(){
1005   1          
1006   1          // Packet: header + motor_measure(int16) + crc
1007   1          
1008   1          uint8 packet_data[6]; 
1009   1          
1010   1          //Header package
1011   1      
1012   1          packet_data[0] = CMD_GET_CURRENTS;
1013   1      
1014   1          *((int16 *) &packet_data[1]) = (int16) g_measOld.curr[0];
1015   1          *((int16 *) &packet_data[3]) = (int16) g_measOld.curr[1];
1016   1      
1017   1          // Calculate Checksum and send message to UART 
1018   1      
1019   1          packet_data[5] = LCRChecksum (packet_data, 5);
1020   1      
1021   1          commWrite(packet_data, 6, FALSE);
1022   1      }
1023          
1024          void cmd_get_curr_and_meas(){
1025   1          
1026   1          uint8 CYDATA index;
1027   1         
1028   1          //Packet: header + curr_meas(int16) + pos_meas(int16) + CRC
1029   1          
1030   1          uint8 packet_data[10];
1031   1      
1032   1          //Header package
1033   1          packet_data[0] = CMD_GET_CURR_AND_MEAS;
1034   1          
1035   1          // Currents
1036   1          *((int16 *) &packet_data[1]) = (int16) g_measOld.curr[0];
1037   1          *((int16 *) &packet_data[3]) = (int16) g_measOld.curr[1];
1038   1      
1039   1          // Positions
1040   1          for (index = NUM_OF_SENSORS; index--;) 
1041   1              *((int16 *) &packet_data[(index << 2) + 5]) = (int16) (g_measOld.pos[index] >> g_mem.res[index]);
1042   1              
1043   1          // Calculate Checksum and send message to UART 
C51 COMPILER V9.51   COMMAND_PROCESSING                                                    10/12/2016 17:30:47 PAGE 18  

1044   1              
1045   1          #if (NUM_OF_SENSORS == 4)
                      packet_data[13] = LCRChecksum (packet_data, 13);
                      commWrite(packet_data, 14, FALSE);
                  #endif
1049   1          #if  (NUM_OF_SENSORS == 3)
                      packet_data[11] = LCRChecksum (packet_data, 11);
                      commWrite(packet_data, 12, FALSE);
                  #endif
1053   1      }
1054          
1055          void cmd_set_inputs(){
1056   1          
1057   1          // Store position setted in right variables
1058   1          g_refNew.pos[0] = *((int16 *) &g_rx.buffer[1]);   // motor 1
1059   1          g_refNew.pos[0] = g_refNew.pos[0] << g_mem.res[0];
1060   1      
1061   1          g_refNew.pos[1] = *((int16 *) &g_rx.buffer[3]);   // motor 2
1062   1          g_refNew.pos[1] = g_refNew.pos[1] << g_mem.res[1];
1063   1      
1064   1          // Check Position Limit cmd
1065   1          if (c_mem.pos_lim_flag) {                      
1066   2              
1067   2              if (g_refNew.pos[0] < c_mem.pos_lim_inf[0]) 
1068   2                  g_refNew.pos[0] = c_mem.pos_lim_inf[0];
1069   2              if (g_refNew.pos[1] < c_mem.pos_lim_inf[1]) 
1070   2                  g_refNew.pos[1] = c_mem.pos_lim_inf[1];
1071   2      
1072   2              if (g_refNew.pos[0] > c_mem.pos_lim_sup[0]) 
1073   2                  g_refNew.pos[0] = c_mem.pos_lim_sup[0];
1074   2              if (g_refNew.pos[1] > c_mem.pos_lim_sup[1]) 
1075   2                  g_refNew.pos[1] = c_mem.pos_lim_sup[1];
1076   2          }
1077   1      }
1078          
1079          void cmd_get_velocities(){
1080   1          
1081   1          uint8 CYDATA index;
1082   1          
1083   1          // Packet: header + measure(int16) + crc
1084   1      
1085   1          uint8 packet_data[6];
1086   1          
1087   1          //Header package
1088   1        
1089   1          packet_data[0] = CMD_GET_VELOCITIES;   
1090   1         
1091   1          for (index = NUM_OF_SENSORS; index--;)
1092   1              *((int16 *) &packet_data[(index << 2) + 1]) = (int16)(g_measOld.vel[index]);
1093   1      
1094   1          // Calculate Checksum and send message to UART 
1095   1          packet_data[5] = LCRChecksum (packet_data, 5);
1096   1          commWrite(packet_data, 6, FALSE);
1097   1      }
1098          
1099          void cmd_activate(){
1100   1          
1101   1          // Store new value reads
1102   1          g_refNew.onoff = g_rx.buffer[1];
1103   1          
1104   1          // Check type of control mode enabled
1105   1          g_refNew.pos[0] = g_meas.pos[0];
C51 COMPILER V9.51   COMMAND_PROCESSING                                                    10/12/2016 17:30:47 PAGE 19  

1106   1          g_refNew.pos[1] = g_meas.pos[1];
1107   1          
1108   1          
1109   1          // Activate/Disactivate motors
1110   1          MOTOR_ON_OFF_Write(g_refNew.onoff);
1111   1      
1112   1      }
1113          
1114          void cmd_set_watchdog(){
1115   1            
1116   1          if (g_rx.buffer[1] <= 0){
1117   2              // Deactivate Watchdog
1118   2              WATCHDOG_ENABLER_Write(1); 
1119   2              g_mem.watchdog_period = 0;   
1120   2          }
1121   1          else{
1122   2              // Activate Watchdog        
1123   2              if (g_rx.buffer[1] > MAX_WATCHDOG_TIMER)
1124   2                  g_rx.buffer[1] = MAX_WATCHDOG_TIMER;
1125   2                  
1126   2              // Period * Time_CLK = WDT
1127   2              // Period = WTD / Time_CLK =     (WTD    )  / ( ( 1 / Freq_CLK ) )
1128   2              // Set request watchdog period - (WTD * 2)  * (250 / 1024        )
1129   2              g_mem.watchdog_period = (uint8) (((uint32) g_rx.buffer[1] * 2 * 250 ) >> 10);   
1130   2              WATCHDOG_COUNTER_WritePeriod(g_mem.watchdog_period); 
1131   2              WATCHDOG_ENABLER_Write(0); 
1132   2          }
1133   1      }
1134          
1135          void cmd_get_activate(){
1136   1          
1137   1          uint8 packet_data[3];
1138   1      
1139   1          // Header        
1140   1          packet_data[0] = CMD_GET_ACTIVATE;
1141   1          
1142   1          // Fill payload
1143   1          packet_data[1] = g_ref.onoff;
1144   1          
1145   1          // Calculate checksum
1146   1          packet_data[2] = LCRChecksum(packet_data, 2);
1147   1          
1148   1          // Send package to UART
1149   1          commWrite(packet_data, 3, FALSE);
1150   1      
1151   1      }
1152          
1153          void cmd_ping(){
1154   1      
1155   1          uint8 packet_data[2];
1156   1      
1157   1          // Header
1158   1          packet_data[0] = CMD_PING;
1159   1          
1160   1          // Load Payload
1161   1          packet_data[1] = CMD_PING;
1162   1      
1163   1          // Send Package to uart
1164   1          commWrite(packet_data, 2, FALSE);
1165   1      }
1166          
1167          void cmd_store_params(){
C51 COMPILER V9.51   COMMAND_PROCESSING                                                    10/12/2016 17:30:47 PAGE 20  

1168   1          
1169   1          uint8 CYDATA packet_lenght = 2;
1170   1          uint8 CYDATA packet_data[2];
1171   1          uint8 CYDATA old_id;
1172   1          
1173   1          if (c_mem.m_mult[0] != g_mem.m_mult[0]){
1174   2              // Old m_mult
1175   2              g_refNew.pos[0] /= c_mem.m_mult[0];
1176   2              // New m_mult
1177   2              g_refNew.pos[0] *= g_mem.m_mult[0];
1178   2          }
1179   1          
1180   1          if (c_mem.m_mult[1] != g_mem.m_mult[1]){
1181   2              // Old m_mult
1182   2              g_refNew.pos[1] /= c_mem.m_mult[1];
1183   2              // New m_mult
1184   2              g_refNew.pos[1] *= g_mem.m_mult[1];
1185   2          }
1186   1          
1187   1          if (c_mem.m_off[0] != g_mem.m_off[0])
1188   1              g_refNew.pos[0] += g_mem.m_off[0] - c_mem.m_off[0];
1189   1      
1190   1          if (c_mem.m_off[1] != g_mem.m_off[1])
1191   1              g_refNew.pos[1] += g_mem.m_off[1] - c_mem.m_off[1];
1192   1              
1193   1          // Check position Limits
1194   1          if (c_mem.pos_lim_flag) {                   // position limiting
1195   2              if (g_refNew.pos[0] < c_mem.pos_lim_inf[0]) g_refNew.pos[0] = c_mem.pos_lim_inf[0];
1196   2              if (g_refNew.pos[1] < c_mem.pos_lim_inf[1]) g_refNew.pos[1] = c_mem.pos_lim_inf[1];
1197   2      
1198   2              if (g_refNew.pos[0] > c_mem.pos_lim_sup[0]) g_refNew.pos[0] = c_mem.pos_lim_sup[0];
1199   2              if (g_refNew.pos[1] > c_mem.pos_lim_sup[1]) g_refNew.pos[1] = c_mem.pos_lim_sup[1];
1200   2          }
1201   1          
1202   1          // Store params 
1203   1          if (c_mem.id != g_mem.id) {     //If a new id is going to be set we will lose communication 
1204   2              old_id = c_mem.id;          //after the memstore(0) and the ACK won't be recognised
1205   2              if(memStore(0)) {
1206   3                  packet_data[0] = ACK_OK;
1207   3                  packet_data[1] = ACK_OK;
1208   3                  commWrite_old_id(packet_data, packet_lenght, old_id);
1209   3              }    
1210   2              else{
1211   3                  packet_data[0] = ACK_ERROR;
1212   3                  packet_data[1] = ACK_ERROR;
1213   3                  commWrite_old_id(packet_data, packet_lenght, old_id);
1214   3              }
1215   2          }    
1216   1          else {
1217   2              if ( memStore(0) ) {
1218   3                  sendAcknowledgment(ACK_OK);
1219   3              } else {
1220   3                  sendAcknowledgment(ACK_ERROR);
1221   3              }
1222   2          }
1223   1      }
1224          
1225          void cmd_set_baudrate(){
1226   1          
1227   1          // Set BaudRate
1228   1          c_mem.baud_rate = g_rx.buffer[1];
1229   1          
C51 COMPILER V9.51   COMMAND_PROCESSING                                                    10/12/2016 17:30:47 PAGE 21  

1230   1          switch(g_rx.buffer[1]){
1231   2              case 13:
1232   2                  CLOCK_UART_SetDividerValue(13);
1233   2                  break;
1234   2              default:
1235   2                  CLOCK_UART_SetDividerValue(3);
1236   2          }
1237   1      }
1238          
1239          void cmd_get_ir(){
1240   1          // Packet: header + measure(int16) + crc
1241   1          uint8 CYDATA packet_lenght = 4;
1242   1          uint8 CYDATA packet_data[4];
1243   1          
1244   1          packet_data[0] = CMD_GET_IR;   //header
1245   1          *((int16 *) &packet_data[1]) = (int16) g_measOld.ir;
1246   1          packet_data[3] = LCRChecksum (packet_data, packet_lenght - 1);
1247   1          commWrite(packet_data, 4, FALSE);
1248   1      }
1249          
1250          void cmd_get_servo(){
1251   1          // Packet: header + measure(int16) + crc
1252   1          uint8 CYDATA packet_lenght = 4;
1253   1          uint8 CYDATA packet_data[4];
1254   1          
1255   1          get_servo();
1256   1          packet_data[0] = CMD_GET_SERVO;   //header
1257   1          *((int16 *) &packet_data[1]) = (int16) g_measOld.servo;
1258   1          packet_data[3] = LCRChecksum (packet_data, packet_lenght - 1);
1259   1          commWrite(packet_data, packet_lenght, FALSE);
1260   1      }
1261          
1262          void cmd_get_force(){
1263   1          // Packet: header + measure(int16) + crc
1264   1          uint8 CYDATA packet_lenght = 4;
1265   1          uint8 CYDATA packet_data[4];
1266   1          
1267   1          packet_data[0] = CMD_GET_FORCE;   //header
1268   1          *((int16 *) &packet_data[1]) = (int16) g_measOld.force;
1269   1          packet_data[3] = LCRChecksum (packet_data, packet_lenght - 1);
1270   1          commWrite(packet_data, packet_lenght, FALSE);
1271   1      }
1272          
1273          void cmd_get_duty_cy_max(){
1274   1          // Packet: header + measure(int16) + crc
1275   1          uint8 CYDATA packet_lenght = 4;
1276   1          uint8 CYDATA packet_data[4];
1277   1          
1278   1          packet_data[0] = CMD_GET_DUTY_CY_MAX;   //header
1279   1          *((int16 *) &packet_data[1]) = (int16)g_measOld.duty_cycle_f;
1280   1          packet_data[3] = LCRChecksum (packet_data, packet_lenght - 1);
1281   1          commWrite(packet_data, packet_lenght, FALSE);
1282   1      }
1283          
1284          /* [] END OF FILE */
C51 COMPILER V9.51   COMMAND_PROCESSING                                                    10/12/2016 17:30:47 PAGE 22  

ASSEMBLY LISTING OF GENERATED OBJECT CODE


             ; FUNCTION commProcess (BEGIN)
                                           ; SOURCE LINE # 37
                                           ; SOURCE LINE # 42
0000 900000      E     MOV     DPTR,#g_rx
0003 E0                MOVX    A,@DPTR
0004 F500        R     MOV     rx_cmd,A
                                           ; SOURCE LINE # 46
0006 7B01              MOV     R3,#01H
0008 7A00        E     MOV     R2,#HIGH g_rx
000A 7900        E     MOV     R1,#LOW g_rx
000C 900000      E     MOV     DPTR,#g_rx+080H
000F E0                MOVX    A,@DPTR
0010 A3                INC     DPTR
0011 E0                MOVX    A,@DPTR
0012 14                DEC     A
0013 FD                MOV     R5,A
0014 120000      E     LCALL   _LCRChecksum
0017 900000      E     MOV     DPTR,#g_rx+080H
001A E0                MOVX    A,@DPTR
001B FC                MOV     R4,A
001C A3                INC     DPTR
001D E0                MOVX    A,@DPTR
001E 2400        E     ADD     A,#LOW g_rx+0FFFFH
0020 F582              MOV     DPL,A
0022 7400        E     MOV     A,#HIGH g_rx+0FFFFH
0024 3C                ADDC    A,R4
0025 F583              MOV     DPH,A
0027 E0                MOVX    A,@DPTR
0028 B50703            CJNE    A,AR7,?C0002
002B D3                SETB    C
002C 8001              SJMP    ?C0003
002E         ?C0002:
002E C3                CLR     C
002F         ?C0003:
002F 4006              JC      ?C0001
                                           ; SOURCE LINE # 48
0031 E4                CLR     A
0032 900000      E     MOV     DPTR,#g_rx+084H
0035 F0                MOVX    @DPTR,A
0036 22                RET     
                                           ; SOURCE LINE # 50
0037         ?C0001:
                                           ; SOURCE LINE # 52
0037 E500        R     MOV     A,rx_cmd
0039 120000      E     LCALL   ?C?CCASE
003C 0000        R     DW      ?C0024
003E 00                DB      00H
003F 0000        R     DW      ?C0022
0041 01                DB      01H
0042 0000        R     DW      ?C0025
0044 03                DB      03H
0045 0000        R     DW      ?C0026
0047 04                DB      04H
0048 0000        R     DW      ?C0029
004A 05                DB      05H
004B 0000        R     DW      ?C0021
004D 06                DB      06H
004E 0000        R     DW      ?C0035
0050 09                DB      09H
C51 COMPILER V9.51   COMMAND_PROCESSING                                                    10/12/2016 17:30:47 PAGE 23  

0051 0000        R     DW      ?C0032
0053 0A                DB      0AH
0054 0000        R     DW      ?C0023
0056 0C                DB      0CH
0057 0000        R     DW      ?C0017
0059 80                DB      080H
005A 0000        R     DW      ?C0019
005C 81                DB      081H
005D 0000        R     DW      ?C0015
005F 82                DB      082H
0060 0000        R     DW      ?C0007
0062 83                DB      083H
0063 0000        R     DW      ?C0006
0065 84                DB      084H
0066 0000        R     DW      ?C0013
0068 85                DB      085H
0069 0000        R     DW      ?C0014
006B 86                DB      086H
006C 0000        R     DW      ?C0016
006E 89                DB      089H
006F 0000        R     DW      ?C0018
0071 8F                DB      08FH
0072 0000        R     DW      ?C0020
0074 90                DB      090H
0075 0000        R     DW      ?C0009
0077 93                DB      093H
0078 0000        R     DW      ?C0008
007A 94                DB      094H
007B 0000        R     DW      ?C0010
007D 95                DB      095H
007E 0000        R     DW      ?C0011
0080 96                DB      096H
0081 0000        R     DW      ?C0012
0083 97                DB      097H
0084 0000              DW      00H
0086 0000        R     DW      ?C0004
                                           ; SOURCE LINE # 55
0088         ?C0006:
                                           ; SOURCE LINE # 56
0088 120000      R     LCALL   cmd_get_measurements
                                           ; SOURCE LINE # 57
008B 22                RET     
                                           ; SOURCE LINE # 61
008C         ?C0007:
                                           ; SOURCE LINE # 62
008C 120000      R     LCALL   cmd_get_inputs
                                           ; SOURCE LINE # 63
008F 22                RET     
                                           ; SOURCE LINE # 66
0090         ?C0008:
                                           ; SOURCE LINE # 67
0090 900000      E     MOV     DPTR,#g_rx+01H
0093 E0                MOVX    A,@DPTR
0094 FE                MOV     R6,A
0095 A3                INC     DPTR
0096 E0                MOVX    A,@DPTR
0097 FF                MOV     R7,A
;---- Variable 'ind' assigned to Register 'R6/R7' ----
                                           ; SOURCE LINE # 68
0098 120000      E     LCALL   _set_servo
                                           ; SOURCE LINE # 69
009B 22                RET     
C51 COMPILER V9.51   COMMAND_PROCESSING                                                    10/12/2016 17:30:47 PAGE 24  

                                           ; SOURCE LINE # 72
009C         ?C0009:
                                           ; SOURCE LINE # 73
009C 120000      R     LCALL   cmd_get_ir
                                           ; SOURCE LINE # 74
009F 22                RET     
                                           ; SOURCE LINE # 77
00A0         ?C0010:
                                           ; SOURCE LINE # 78
00A0 120000      R     LCALL   cmd_get_servo
                                           ; SOURCE LINE # 79
00A3 22                RET     
                                           ; SOURCE LINE # 82
00A4         ?C0011:
                                           ; SOURCE LINE # 83
00A4 120000      R     LCALL   cmd_get_force
                                           ; SOURCE LINE # 84
00A7 22                RET     
                                           ; SOURCE LINE # 87
00A8         ?C0012:
                                           ; SOURCE LINE # 88
00A8 120000      R     LCALL   cmd_get_duty_cy_max
                                           ; SOURCE LINE # 89
00AB 22                RET     
                                           ; SOURCE LINE # 93
00AC         ?C0013:
                                           ; SOURCE LINE # 94
00AC 120000      R     LCALL   cmd_get_currents
                                           ; SOURCE LINE # 95
00AF 22                RET     
                                           ; SOURCE LINE # 99
00B0         ?C0014:
                                           ; SOURCE LINE # 100
00B0 120000      R     LCALL   cmd_get_curr_and_meas
                                           ; SOURCE LINE # 101
00B3 22                RET     
                                           ; SOURCE LINE # 105
00B4         ?C0015:
                                           ; SOURCE LINE # 106
00B4 120000      R     LCALL   cmd_set_inputs
                                           ; SOURCE LINE # 107
00B7 22                RET     
                                           ; SOURCE LINE # 111
00B8         ?C0016:
                                           ; SOURCE LINE # 112
00B8 120000      R     LCALL   cmd_get_velocities
                                           ; SOURCE LINE # 113
00BB 22                RET     
                                           ; SOURCE LINE # 116
00BC         ?C0017:
                                           ; SOURCE LINE # 117
00BC 120000      R     LCALL   cmd_activate
                                           ; SOURCE LINE # 118
00BF 22                RET     
                                           ; SOURCE LINE # 122
00C0         ?C0018:
                                           ; SOURCE LINE # 123
00C0 120000      R     LCALL   cmd_set_watchdog
                                           ; SOURCE LINE # 124
00C3 22                RET     
                                           ; SOURCE LINE # 128
00C4         ?C0019:
C51 COMPILER V9.51   COMMAND_PROCESSING                                                    10/12/2016 17:30:47 PAGE 25  

                                           ; SOURCE LINE # 129
00C4 120000      R     LCALL   cmd_get_activate
                                           ; SOURCE LINE # 130
00C7 22                RET     
                                           ; SOURCE LINE # 134
00C8         ?C0020:
                                           ; SOURCE LINE # 135
00C8 120000      R     LCALL   cmd_set_baudrate
                                           ; SOURCE LINE # 136
00CB 22                RET     
                                           ; SOURCE LINE # 140
00CC         ?C0021:
                                           ; SOURCE LINE # 141
00CC 900000      E     MOV     DPTR,#g_rx+01H
00CF E0                MOVX    A,@DPTR
00D0 FE                MOV     R6,A
00D1 A3                INC     DPTR
00D2 E0                MOVX    A,@DPTR
00D3 FF                MOV     R7,A
00D4 120000      R     LCALL   _infoGet
                                           ; SOURCE LINE # 142
00D7 22                RET     
                                           ; SOURCE LINE # 146
00D8         ?C0022:
                                           ; SOURCE LINE # 147
00D8 120000      R     LCALL   setZeros
                                           ; SOURCE LINE # 148
00DB 22                RET     
                                           ; SOURCE LINE # 152
00DC         ?C0023:
                                           ; SOURCE LINE # 153
00DC 900000      E     MOV     DPTR,#g_rx+01H
00DF E0                MOVX    A,@DPTR
00E0 FE                MOV     R6,A
00E1 A3                INC     DPTR
00E2 E0                MOVX    A,@DPTR
00E3 FF                MOV     R7,A
00E4 120000      R     LCALL   _get_param_list
                                           ; SOURCE LINE # 154
00E7 22                RET     
                                           ; SOURCE LINE # 158
00E8         ?C0024:
                                           ; SOURCE LINE # 159
00E8 120000      R     LCALL   cmd_ping
                                           ; SOURCE LINE # 160
00EB 22                RET     
                                           ; SOURCE LINE # 164
00EC         ?C0025:
                                           ; SOURCE LINE # 165
00EC 120000      R     LCALL   cmd_store_params
                                           ; SOURCE LINE # 166
00EF 22                RET     
                                           ; SOURCE LINE # 170
00F0         ?C0026:
                                           ; SOURCE LINE # 171
00F0 7F08              MOV     R7,#08H
00F2 7E00              MOV     R6,#00H
00F4 120000      R     LCALL   _memStore
00F7 EF                MOV     A,R7
00F8 6006              JZ      ?C0027
                                           ; SOURCE LINE # 172
00FA 7F01              MOV     R7,#01H
C51 COMPILER V9.51   COMMAND_PROCESSING                                                    10/12/2016 17:30:47 PAGE 26  

00FC 120000      R     LCALL   _sendAcknowledgment
                                           ; SOURCE LINE # 173
00FF 22                RET     
0100         ?C0027:
                                           ; SOURCE LINE # 174
0100 E4                CLR     A
0101 FF                MOV     R7,A
0102 120000      R     LCALL   _sendAcknowledgment
                                           ; SOURCE LINE # 175
                                           ; SOURCE LINE # 176
0105 22                RET     
                                           ; SOURCE LINE # 180
0106         ?C0029:
                                           ; SOURCE LINE # 181
0106 120000      R     LCALL   memRestore
0109 EF                MOV     A,R7
010A 6006              JZ      ?C0030
                                           ; SOURCE LINE # 182
010C 7F01              MOV     R7,#01H
010E 120000      R     LCALL   _sendAcknowledgment
                                           ; SOURCE LINE # 183
0111 22                RET     
0112         ?C0030:
                                           ; SOURCE LINE # 184
0112 E4                CLR     A
0113 FF                MOV     R7,A
0114 120000      R     LCALL   _sendAcknowledgment
                                           ; SOURCE LINE # 185
                                           ; SOURCE LINE # 186
0117 22                RET     
                                           ; SOURCE LINE # 190
0118         ?C0032:
                                           ; SOURCE LINE # 191
0118 120000      R     LCALL   memInit
011B EF                MOV     A,R7
011C 6006              JZ      ?C0033
                                           ; SOURCE LINE # 192
011E 7F01              MOV     R7,#01H
0120 120000      R     LCALL   _sendAcknowledgment
                                           ; SOURCE LINE # 193
0123 22                RET     
0124         ?C0033:
                                           ; SOURCE LINE # 194
0124 E4                CLR     A
0125 FF                MOV     R7,A
0126 120000      R     LCALL   _sendAcknowledgment
                                           ; SOURCE LINE # 195
                                           ; SOURCE LINE # 196
0129 22                RET     
                                           ; SOURCE LINE # 199
012A         ?C0035:
                                           ; SOURCE LINE # 200
012A 7F01              MOV     R7,#01H
012C 120000      R     LCALL   _sendAcknowledgment
                                           ; SOURCE LINE # 201
012F E4                CLR     A
0130 7FE8              MOV     R7,#0E8H
0132 7E03              MOV     R6,#03H
0134 FD                MOV     R5,A
0135 FC                MOV     R4,A
0136 120000      E     LCALL   _?CyDelay
                                           ; SOURCE LINE # 202
C51 COMPILER V9.51   COMMAND_PROCESSING                                                    10/12/2016 17:30:47 PAGE 27  

0139 E4                CLR     A
013A FF                MOV     R7,A
013B 120000      E     LCALL   _FTDI_ENABLE_REG_Write
                                           ; SOURCE LINE # 203
013E E4                CLR     A
013F 7FE8              MOV     R7,#0E8H
0141 7E03              MOV     R6,#03H
0143 FD                MOV     R5,A
0144 FC                MOV     R4,A
0145 120000      E     LCALL   _?CyDelay
                                           ; SOURCE LINE # 204
0148 120000      E     LCALL   Bootloadable_Load
                                           ; SOURCE LINE # 205
                                           ; SOURCE LINE # 208
                                           ; SOURCE LINE # 209
                                           ; SOURCE LINE # 211
                                           ; SOURCE LINE # 212
014B         ?C0004:
014B 22                RET     
             ; FUNCTION commProcess (END)

             ; FUNCTION _infoGet (BEGIN)
                                           ; SOURCE LINE # 218
;---- Variable 'info_type' assigned to Register 'R6/R7' ----
                                           ; SOURCE LINE # 223
0000 EF                MOV     A,R7
0001 7015              JNZ     ?C0040
0003 EE                MOV     A,R6
0004 7012              JNZ     ?C0040
                                           ; SOURCE LINE # 224
0006         ?C0038:
                                           ; SOURCE LINE # 225
0006 7B01              MOV     R3,#01H
0008 7A00        R     MOV     R2,#HIGH packet_string
000A 7900        R     MOV     R1,#LOW packet_string
000C 120000      R     LCALL   _infoPrepare
                                           ; SOURCE LINE # 226
000F 7B01              MOV     R3,#01H
0011 7A00        R     MOV     R2,#HIGH packet_string
0013 7900        R     MOV     R1,#LOW packet_string
0015 120000      E     LCALL   _UART_RS485_PutString
                                           ; SOURCE LINE # 227
                                           ; SOURCE LINE # 228
                                           ; SOURCE LINE # 229
                                           ; SOURCE LINE # 230
                                           ; SOURCE LINE # 231
0018         ?C0040:
0018 22                RET     
             ; FUNCTION _infoGet (END)

             ; FUNCTION setZeros (BEGIN)
                                           ; SOURCE LINE # 237
                                           ; SOURCE LINE # 238
                                           ; SOURCE LINE # 241
0000 E4                CLR     A
0001 F500        R     MOV     i,A
0003         ?C0041:
0003 E500        R     MOV     A,i
0005 C3                CLR     C
0006 9402              SUBB    A,#02H
0008 4003              JC      $ + 5H
000A 020000      R     LJMP    ?C0042
C51 COMPILER V9.51   COMMAND_PROCESSING                                                    10/12/2016 17:30:47 PAGE 28  

                                           ; SOURCE LINE # 242
000D E500        R     MOV     A,i
000F 25E0              ADD     A,ACC
0011 2400        E     ADD     A,#LOW g_rx+01H
0013 F582              MOV     DPL,A
0015 E4                CLR     A
0016 3400        E     ADDC    A,#HIGH g_rx+01H
0018 F583              MOV     DPH,A
001A E0                MOVX    A,@DPTR
001B FE                MOV     R6,A
001C A3                INC     DPTR
001D E0                MOVX    A,@DPTR
001E FF                MOV     R7,A
001F C3                CLR     C
0020 E4                CLR     A
0021 9F                SUBB    A,R7
0022 FF                MOV     R7,A
0023 E4                CLR     A
0024 9E                SUBB    A,R6
0025 FE                MOV     R6,A
0026 33                RLC     A
0027 95E0              SUBB    A,ACC
0029 FD                MOV     R5,A
002A FC                MOV     R4,A
002B E500        R     MOV     A,i
002D 25E0              ADD     A,ACC
002F 25E0              ADD     A,ACC
0031 2400        E     ADD     A,#LOW g_mem+013H
0033 F582              MOV     DPL,A
0035 E4                CLR     A
0036 3400        E     ADDC    A,#HIGH g_mem+013H
0038 F583              MOV     DPH,A
003A 120000      E     LCALL   ?C?LSTXDATA
                                           ; SOURCE LINE # 244
003D E500        R     MOV     A,i
003F 25E0              ADD     A,ACC
0041 25E0              ADD     A,ACC
0043 2400        E     ADD     A,#LOW g_mem+013H
0045 F582              MOV     DPL,A
0047 E4                CLR     A
0048 3400        E     ADDC    A,#HIGH g_mem+013H
004A F583              MOV     DPH,A
004C E0                MOVX    A,@DPTR
004D FC                MOV     R4,A
004E A3                INC     DPTR
004F E0                MOVX    A,@DPTR
0050 FD                MOV     R5,A
0051 A3                INC     DPTR
0052 E0                MOVX    A,@DPTR
0053 FE                MOV     R6,A
0054 A3                INC     DPTR
0055 E0                MOVX    A,@DPTR
0056 FF                MOV     R7,A
0057 120000      E     LCALL   ?C?LNEG
005A E500        R     MOV     A,i
005C 25E0              ADD     A,ACC
005E 25E0              ADD     A,ACC
0060 2400        E     ADD     A,#LOW g_mem+013H
0062 F582              MOV     DPL,A
0064 E4                CLR     A
0065 3400        E     ADDC    A,#HIGH g_mem+013H
0067 F583              MOV     DPH,A
C51 COMPILER V9.51   COMMAND_PROCESSING                                                    10/12/2016 17:30:47 PAGE 29  

0069 120000      E     LCALL   ?C?LSTXDATA
                                           ; SOURCE LINE # 245
006C E500        R     MOV     A,i
006E 25E0              ADD     A,ACC
0070 25E0              ADD     A,ACC
0072 2400        E     ADD     A,#LOW g_mem+013H
0074 F582              MOV     DPL,A
0076 E4                CLR     A
0077 3400        E     ADDC    A,#HIGH g_mem+013H
0079 F583              MOV     DPH,A
007B C083              PUSH    DPH
007D C082              PUSH    DPL
007F E0                MOVX    A,@DPTR
0080 FC                MOV     R4,A
0081 A3                INC     DPTR
0082 E0                MOVX    A,@DPTR
0083 FD                MOV     R5,A
0084 A3                INC     DPTR
0085 E0                MOVX    A,@DPTR
0086 FE                MOV     R6,A
0087 A3                INC     DPTR
0088 E0                MOVX    A,@DPTR
0089 FF                MOV     R7,A
008A 7400        E     MOV     A,#LOW g_mem+011H
008C 2500        R     ADD     A,i
008E F582              MOV     DPL,A
0090 E4                CLR     A
0091 3400        E     ADDC    A,#HIGH g_mem+011H
0093 F583              MOV     DPH,A
0095 E0                MOVX    A,@DPTR
0096 F9                MOV     R1,A
0097 F8                MOV     R0,A
0098 120000      E     LCALL   ?C?LSHL
009B D082              POP     DPL
009D D083              POP     DPH
009F 120000      E     LCALL   ?C?LSTXDATA
                                           ; SOURCE LINE # 247
00A2 7400        E     MOV     A,#LOW g_meas+0CH
00A4 2500        R     ADD     A,i
00A6 F582              MOV     DPL,A
00A8 E4                CLR     A
00A9 3400        E     ADDC    A,#HIGH g_meas+0CH
00AB F583              MOV     DPH,A
00AD E4                CLR     A
00AE F0                MOVX    @DPTR,A
                                           ; SOURCE LINE # 248
00AF 0500        R     INC     i
00B1 020000      R     LJMP    ?C0041
00B4         ?C0042:
                                           ; SOURCE LINE # 249
00B4 D200        E     SETB    reset_last_value_flag
                                           ; SOURCE LINE # 251
00B6 7F01              MOV     R7,#01H
00B8 120000      R     LCALL   _sendAcknowledgment
                                           ; SOURCE LINE # 252
00BB 22                RET     
             ; FUNCTION setZeros (END)

             ; FUNCTION _get_param_list (BEGIN)
                                           ; SOURCE LINE # 258
0000 900000      R     MOV     DPTR,#index
0003 EE                MOV     A,R6
C51 COMPILER V9.51   COMMAND_PROCESSING                                                    10/12/2016 17:30:47 PAGE 30  

0004 F0                MOVX    @DPTR,A
0005 A3                INC     DPTR
0006 EF                MOV     A,R7
0007 F0                MOVX    @DPTR,A
                                           ; SOURCE LINE # 259
                                           ; SOURCE LINE # 261
0008 7800        R     MOV     R0,#LOW packet_data
000A 7C00        R     MOV     R4,#HIGH packet_data
000C 7D01              MOV     R5,#01H
000E 7BFF              MOV     R3,#0FFH
0010 7A00        R     MOV     R2,#HIGH _?ix1000
0012 7900        R     MOV     R1,#LOW _?ix1000
0014 7E05              MOV     R6,#05H
0016 7F47              MOV     R7,#047H
0018 120000      E     LCALL   ?C?COPYAMD
                                           ; SOURCE LINE # 262
001B 900000      R     MOV     DPTR,#packet_lenght
001E 7405              MOV     A,#05H
0020 F0                MOVX    @DPTR,A
0021 A3                INC     DPTR
0022 7447              MOV     A,#047H
0024 F0                MOVX    @DPTR,A
                                           ; SOURCE LINE # 270
0025 7800        R     MOV     R0,#LOW id_str
0027 7C00        R     MOV     R4,#HIGH id_str
0029 7D01              MOV     R5,#01H
002B 7BFF              MOV     R3,#0FFH
002D 7A00        R     MOV     R2,#HIGH _?ix1001
002F 7900        R     MOV     R1,#LOW _?ix1001
0031 7E00              MOV     R6,#00H
0033 7F0F              MOV     R7,#0FH
0035 120000      E     LCALL   ?C?COPYAMD
                                           ; SOURCE LINE # 271
0038 7800        R     MOV     R0,#LOW pos_pid_str
003A 7C00        R     MOV     R4,#HIGH pos_pid_str
003C 7D01              MOV     R5,#01H
003E 7BFF              MOV     R3,#0FFH
0040 7A00        R     MOV     R2,#HIGH _?ix1002
0042 7900        R     MOV     R1,#LOW _?ix1002
0044 7E00              MOV     R6,#00H
0046 7F1C              MOV     R7,#01CH
0048 120000      E     LCALL   ?C?COPYAMD
                                           ; SOURCE LINE # 272
004B 7800        R     MOV     R0,#LOW startup_str
004D 7C00        R     MOV     R4,#HIGH startup_str
004F 7D01              MOV     R5,#01H
0051 7BFF              MOV     R3,#0FFH
0053 7A00        R     MOV     R2,#HIGH _?ix1003
0055 7900        R     MOV     R1,#LOW _?ix1003
0057 7E00              MOV     R6,#00H
0059 7F1C              MOV     R7,#01CH
005B 120000      E     LCALL   ?C?COPYAMD
                                           ; SOURCE LINE # 273
005E 7800        R     MOV     R0,#LOW res_str
0060 7C00        R     MOV     R4,#HIGH res_str
0062 7D01              MOV     R5,#01H
0064 7BFF              MOV     R3,#0FFH
0066 7A00        R     MOV     R2,#HIGH _?ix1004
0068 7900        R     MOV     R1,#LOW _?ix1004
006A 7E00              MOV     R6,#00H
006C 7F11              MOV     R7,#011H
006E 120000      E     LCALL   ?C?COPYAMD
C51 COMPILER V9.51   COMMAND_PROCESSING                                                    10/12/2016 17:30:47 PAGE 31  

                                           ; SOURCE LINE # 274
0071 7800        R     MOV     R0,#LOW m_off_str
0073 7C00        R     MOV     R4,#HIGH m_off_str
0075 7D01              MOV     R5,#01H
0077 7BFF              MOV     R3,#0FFH
0079 7A00        R     MOV     R2,#HIGH _?ix1005
007B 7900        R     MOV     R1,#LOW _?ix1005
007D 7E00              MOV     R6,#00H
007F 7F19              MOV     R7,#019H
0081 120000      E     LCALL   ?C?COPYAMD
                                           ; SOURCE LINE # 275
0084 7800        R     MOV     R0,#LOW mult_str
0086 7C00        R     MOV     R4,#HIGH mult_str
0088 7D01              MOV     R5,#01H
008A 7BFF              MOV     R3,#0FFH
008C 7A00        R     MOV     R2,#HIGH _?ix1006
008E 7900        R     MOV     R1,#LOW _?ix1006
0090 7E00              MOV     R6,#00H
0092 7F11              MOV     R7,#011H
0094 120000      E     LCALL   ?C?COPYAMD
                                           ; SOURCE LINE # 276
0097 7800        R     MOV     R0,#LOW pos_lim_flag_str
0099 7C00        R     MOV     R4,#HIGH pos_lim_flag_str
009B 7D01              MOV     R5,#01H
009D 7BFF              MOV     R3,#0FFH
009F 7A00        R     MOV     R2,#HIGH _?ix1007
00A1 7900        R     MOV     R1,#LOW _?ix1007
00A3 7E00              MOV     R6,#00H
00A5 7F1C              MOV     R7,#01CH
00A7 120000      E     LCALL   ?C?COPYAMD
                                           ; SOURCE LINE # 277
00AA 7800        R     MOV     R0,#LOW pos_lim_str
00AC 7C00        R     MOV     R4,#HIGH pos_lim_str
00AE 7D01              MOV     R5,#01H
00B0 7BFF              MOV     R3,#0FFH
00B2 7A00        R     MOV     R2,#HIGH _?ix1008
00B4 7900        R     MOV     R1,#LOW _?ix1008
00B6 7E00              MOV     R6,#00H
00B8 7F1C              MOV     R7,#01CH
00BA 120000      E     LCALL   ?C?COPYAMD
                                           ; SOURCE LINE # 278
00BD 7800        R     MOV     R0,#LOW max_step_str
00BF 7C00        R     MOV     R4,#HIGH max_step_str
00C1 7D01              MOV     R5,#01H
00C3 7BFF              MOV     R3,#0FFH
00C5 7A00        R     MOV     R2,#HIGH _?ix1009
00C7 7900        R     MOV     R1,#LOW _?ix1009
00C9 7E00              MOV     R6,#00H
00CB 7F1A              MOV     R7,#01AH
00CD 120000      E     LCALL   ?C?COPYAMD
                                           ; SOURCE LINE # 279
00D0 7800        R     MOV     R0,#LOW curr_limit_str
00D2 7C00        R     MOV     R4,#HIGH curr_limit_str
00D4 7D01              MOV     R5,#01H
00D6 7BFF              MOV     R3,#0FFH
00D8 7A00        R     MOV     R2,#HIGH _?ix1010
00DA 7900        R     MOV     R1,#LOW _?ix1010
00DC 7E00              MOV     R6,#00H
00DE 7F14              MOV     R7,#014H
00E0 120000      E     LCALL   ?C?COPYAMD
                                           ; SOURCE LINE # 280
00E3 7800        R     MOV     R0,#LOW pulse_mod_str
C51 COMPILER V9.51   COMMAND_PROCESSING                                                    10/12/2016 17:30:47 PAGE 32  

00E5 7C00        R     MOV     R4,#HIGH pulse_mod_str
00E7 7D01              MOV     R5,#01H
00E9 7BFF              MOV     R3,#0FFH
00EB 7A00        R     MOV     R2,#HIGH _?ix1011
00ED 7900        R     MOV     R1,#LOW _?ix1011
00EF 7E00              MOV     R6,#00H
00F1 7F1C              MOV     R7,#01CH
00F3 120000      E     LCALL   ?C?COPYAMD
                                           ; SOURCE LINE # 281
00F6 7800        R     MOV     R0,#LOW pressure_bounds_str
00F8 7C00        R     MOV     R4,#HIGH pressure_bounds_str
00FA 7D01              MOV     R5,#01H
00FC 7BFF              MOV     R3,#0FFH
00FE 7A00        R     MOV     R2,#HIGH _?ix1012
0100 7900        R     MOV     R1,#LOW _?ix1012
0102 7E00              MOV     R6,#00H
0104 7F23              MOV     R7,#023H
0106 120000      E     LCALL   ?C?COPYAMD
                                           ; SOURCE LINE # 282
0109 7800        R     MOV     R0,#LOW pulse_freq_str
010B 7C00        R     MOV     R4,#HIGH pulse_freq_str
010D 7D01              MOV     R5,#01H
010F 7BFF              MOV     R3,#0FFH
0111 7A00        R     MOV     R2,#HIGH _?ix1013
0113 7900        R     MOV     R1,#LOW _?ix1013
0115 7E00              MOV     R6,#00H
0117 7F16              MOV     R7,#016H
0119 120000      E     LCALL   ?C?COPYAMD
                                           ; SOURCE LINE # 283
011C 7800        R     MOV     R0,#LOW pow_tension_str
011E 7C00        R     MOV     R4,#HIGH pow_tension_str
0120 7D01              MOV     R5,#01H
0122 7BFF              MOV     R3,#0FFH
0124 7A00        R     MOV     R2,#HIGH _?ix1014
0126 7900        R     MOV     R1,#LOW _?ix1014
0128 7E00              MOV     R6,#00H
012A 7F16              MOV     R7,#016H
012C 120000      E     LCALL   ?C?COPYAMD
                                           ; SOURCE LINE # 286
012F 7800        R     MOV     R0,#LOW yes_no_menu
0131 7C00        R     MOV     R4,#HIGH yes_no_menu
0133 7D01              MOV     R5,#01H
0135 7BFF              MOV     R3,#0FFH
0137 7A00        R     MOV     R2,#HIGH _?ix1015
0139 7900        R     MOV     R1,#LOW _?ix1015
013B 7E00              MOV     R6,#00H
013D 7F2A              MOV     R7,#02AH
013F 120000      E     LCALL   ?C?COPYAMD
                                           ; SOURCE LINE # 289
0142 7B01              MOV     R3,#01H
0144 7A00        R     MOV     R2,#HIGH id_str
0146 7900        R     MOV     R1,#LOW id_str
0148 120000      E     LCALL   _strlen
014B 8F00        R     MOV     id_str_len,R7
                                           ; SOURCE LINE # 290
014D 7B01              MOV     R3,#01H
014F 7A00        R     MOV     R2,#HIGH pos_pid_str
0151 7900        R     MOV     R1,#LOW pos_pid_str
0153 120000      E     LCALL   _strlen
0156 8F00        R     MOV     pos_pid_str_len,R7
                                           ; SOURCE LINE # 292
0158 7B01              MOV     R3,#01H
C51 COMPILER V9.51   COMMAND_PROCESSING                                                    10/12/2016 17:30:47 PAGE 33  

015A 7A00        R     MOV     R2,#HIGH res_str
015C 7900        R     MOV     R1,#LOW res_str
015E 120000      E     LCALL   _strlen
0161 8F00        R     MOV     res_str_len,R7
                                           ; SOURCE LINE # 293
0163 7B01              MOV     R3,#01H
0165 7A00        R     MOV     R2,#HIGH m_off_str
0167 7900        R     MOV     R1,#LOW m_off_str
0169 120000      E     LCALL   _strlen
016C 8F00        R     MOV     m_off_str_len,R7
                                           ; SOURCE LINE # 294
016E 7B01              MOV     R3,#01H
0170 7A00        R     MOV     R2,#HIGH mult_str
0172 7900        R     MOV     R1,#LOW mult_str
0174 120000      E     LCALL   _strlen
0177 8F00        R     MOV     mult_str_len,R7
                                           ; SOURCE LINE # 296
0179 7B01              MOV     R3,#01H
017B 7A00        R     MOV     R2,#HIGH pos_lim_str
017D 7900        R     MOV     R1,#LOW pos_lim_str
017F 120000      E     LCALL   _strlen
0182 8F00        R     MOV     pos_lim_str_len,R7
                                           ; SOURCE LINE # 297
0184 7B01              MOV     R3,#01H
0186 7A00        R     MOV     R2,#HIGH curr_limit_str
0188 7900        R     MOV     R1,#LOW curr_limit_str
018A 120000      E     LCALL   _strlen
018D 8F00        R     MOV     curr_limit_str_len,R7
                                           ; SOURCE LINE # 299
018F 7B01              MOV     R3,#01H
0191 7A00        R     MOV     R2,#HIGH pow_tension_str
0193 7900        R     MOV     R1,#LOW pow_tension_str
0195 120000      E     LCALL   _strlen
0198 8F00        R     MOV     pow_tension_str_len,R7
                                           ; SOURCE LINE # 301
019A 7B01              MOV     R3,#01H
019C 7A00        R     MOV     R2,#HIGH yes_no_menu
019E 7900        R     MOV     R1,#LOW yes_no_menu
01A0 120000      E     LCALL   _strlen
01A3 8F00        R     MOV     yes_no_menu_len,R7
                                           ; SOURCE LINE # 303
01A5 900000      R     MOV     DPTR,#packet_data
01A8 740C              MOV     A,#0CH
01AA F0                MOVX    @DPTR,A
                                           ; SOURCE LINE # 304
01AB A3                INC     DPTR
01AC 740E              MOV     A,#0EH
01AE F0                MOVX    @DPTR,A
                                           ; SOURCE LINE # 306
01AF 900000      R     MOV     DPTR,#index
01B2 E0                MOVX    A,@DPTR
01B3 FE                MOV     R6,A
01B4 A3                INC     DPTR
01B5 E0                MOVX    A,@DPTR
01B6 FF                MOV     R7,A
01B7 EE                MOV     A,R6
01B8 6003              JZ      $ + 5H
01BA 020000      R     LJMP    ?C0142
01BD EF                MOV     A,R7
01BE B40F00            CJNE    A,#0FH,?C0256
01C1         ?C0256:
01C1 4003              JC      $ + 5H
C51 COMPILER V9.51   COMMAND_PROCESSING                                                    10/12/2016 17:30:47 PAGE 34  

01C3 020000      R     LJMP    ?C0142
01C6 900000      R     MOV     DPTR,#?C0257
01C9 F8                MOV     R0,A
01CA 28                ADD     A,R0
01CB 28                ADD     A,R0
01CC 73                JMP     @A+DPTR
01CD         ?C0257:
01CD 020000      R     LJMP    ?C0046
01D0 020000      R     LJMP    ?C0110
01D3 020000      R     LJMP    ?C0111
01D6 020000      R     LJMP    ?C0112
01D9 020000      R     LJMP    ?C0115
01DC 020000      R     LJMP    ?C0119
01DF 020000      R     LJMP    ?C0123
01E2 020000      R     LJMP    ?C0127
01E5 020000      R     LJMP    ?C0128
01E8 020000      R     LJMP    ?C0132
01EB 020000      R     LJMP    ?C0135
01EE 020000      R     LJMP    ?C0136
01F1 020000      R     LJMP    ?C0139
01F4 020000      R     LJMP    ?C0140
01F7 020000      R     LJMP    ?C0141
                                           ; SOURCE LINE # 307
01FA         ?C0046:
                                           ; SOURCE LINE # 310
01FA 900000      R     MOV     DPTR,#packet_data+02H
01FD 7402              MOV     A,#02H
01FF F0                MOVX    @DPTR,A
                                           ; SOURCE LINE # 311
0200 A3                INC     DPTR
0201 14                DEC     A
0202 F0                MOVX    @DPTR,A
                                           ; SOURCE LINE # 312
0203 900000      E     MOV     DPTR,#c_mem+01H
0206 E0                MOVX    A,@DPTR
0207 900000      R     MOV     DPTR,#packet_data+04H
020A F0                MOVX    @DPTR,A
                                           ; SOURCE LINE # 313
020B 750000      R     MOV     i,#00H
020E 850000      R     MOV     i+01H,id_str_len
0211         ?C0047:
0211 E500        R     MOV     A,i+01H
0213 4500        R     ORL     A,i
0215 602C              JZ      ?C0048
                                           ; SOURCE LINE # 314
0217 C3                CLR     C
0218 E500        R     MOV     A,id_str_len
021A 9500        R     SUBB    A,i+01H
021C FF                MOV     R7,A
021D E4                CLR     A
021E 9500        R     SUBB    A,i
0220 FE                MOV     R6,A
0221 7400        R     MOV     A,#LOW id_str
0223 2F                ADD     A,R7
0224 F582              MOV     DPL,A
0226 7400        R     MOV     A,#HIGH id_str
0228 3E                ADDC    A,R6
0229 F583              MOV     DPH,A
022B E0                MOVX    A,@DPTR
022C FD                MOV     R5,A
022D 7400        R     MOV     A,#LOW packet_data+05H
022F 2F                ADD     A,R7
C51 COMPILER V9.51   COMMAND_PROCESSING                                                    10/12/2016 17:30:47 PAGE 35  

0230 F582              MOV     DPL,A
0232 7400        R     MOV     A,#HIGH packet_data+05H
0234 3E                ADDC    A,R6
0235 F583              MOV     DPH,A
0237 ED                MOV     A,R5
0238 F0                MOVX    @DPTR,A
0239 E500        R     MOV     A,i+01H
023B 1500        R     DEC     i+01H
023D 7002              JNZ     ?C0258
023F 1500        R     DEC     i
0241         ?C0258:
0241 80CE              SJMP    ?C0047
0243         ?C0048:
                                           ; SOURCE LINE # 318
0243 900000      R     MOV     DPTR,#packet_data+034H
0246 7407              MOV     A,#07H
0248 F0                MOVX    @DPTR,A
                                           ; SOURCE LINE # 319
0249 A3                INC     DPTR
024A 7403              MOV     A,#03H
024C F0                MOVX    @DPTR,A
                                           ; SOURCE LINE # 320
024D 900000      E     MOV     DPTR,#c_mem+02H
0250 E0                MOVX    A,@DPTR
0251 FC                MOV     R4,A
0252 A3                INC     DPTR
0253 E0                MOVX    A,@DPTR
0254 FD                MOV     R5,A
0255 A3                INC     DPTR
0256 E0                MOVX    A,@DPTR
0257 FE                MOV     R6,A
0258 A3                INC     DPTR
0259 E0                MOVX    A,@DPTR
025A FF                MOV     R7,A
025B EC                MOV     A,R4
025C 120000      E     LCALL   ?C?FCASTL
025F E4                CLR     A
0260 FB                MOV     R3,A
0261 FA                MOV     R2,A
0262 7980              MOV     R1,#080H
0264 7847              MOV     R0,#047H
0266 120000      E     LCALL   ?C?FPDIV
0269 900000      R     MOV     DPTR,#packet_data+036H
026C 120000      E     LCALL   ?C?LSTXDATA
                                           ; SOURCE LINE # 321
026F 900000      E     MOV     DPTR,#c_mem+06H
0272 E0                MOVX    A,@DPTR
0273 FC                MOV     R4,A
0274 A3                INC     DPTR
0275 E0                MOVX    A,@DPTR
0276 FD                MOV     R5,A
0277 A3                INC     DPTR
0278 E0                MOVX    A,@DPTR
0279 FE                MOV     R6,A
027A A3                INC     DPTR
027B E0                MOVX    A,@DPTR
027C FF                MOV     R7,A
027D EC                MOV     A,R4
027E 120000      E     LCALL   ?C?FCASTL
0281 E4                CLR     A
0282 FB                MOV     R3,A
0283 FA                MOV     R2,A
C51 COMPILER V9.51   COMMAND_PROCESSING                                                    10/12/2016 17:30:47 PAGE 36  

0284 7980              MOV     R1,#080H
0286 7847              MOV     R0,#047H
0288 120000      E     LCALL   ?C?FPDIV
028B 900000      R     MOV     DPTR,#packet_data+03AH
028E 120000      E     LCALL   ?C?LSTXDATA
                                           ; SOURCE LINE # 322
0291 900000      E     MOV     DPTR,#c_mem+0AH
0294 E0                MOVX    A,@DPTR
0295 FC                MOV     R4,A
0296 A3                INC     DPTR
0297 E0                MOVX    A,@DPTR
0298 FD                MOV     R5,A
0299 A3                INC     DPTR
029A E0                MOVX    A,@DPTR
029B FE                MOV     R6,A
029C A3                INC     DPTR
029D E0                MOVX    A,@DPTR
029E FF                MOV     R7,A
029F EC                MOV     A,R4
02A0 120000      E     LCALL   ?C?FCASTL
02A3 E4                CLR     A
02A4 FB                MOV     R3,A
02A5 FA                MOV     R2,A
02A6 7980              MOV     R1,#080H
02A8 7847              MOV     R0,#047H
02AA 120000      E     LCALL   ?C?FPDIV
02AD 900000      R     MOV     DPTR,#packet_data+03EH
02B0 120000      E     LCALL   ?C?LSTXDATA
                                           ; SOURCE LINE # 323
02B3 750000      R     MOV     i,#00H
02B6 850000      R     MOV     i+01H,pos_pid_str_len
02B9         ?C0050:
02B9 E500        R     MOV     A,i+01H
02BB 4500        R     ORL     A,i
02BD 602C              JZ      ?C0051
                                           ; SOURCE LINE # 324
02BF C3                CLR     C
02C0 E500        R     MOV     A,pos_pid_str_len
02C2 9500        R     SUBB    A,i+01H
02C4 FF                MOV     R7,A
02C5 E4                CLR     A
02C6 9500        R     SUBB    A,i
02C8 FE                MOV     R6,A
02C9 7400        R     MOV     A,#LOW pos_pid_str
02CB 2F                ADD     A,R7
02CC F582              MOV     DPL,A
02CE 7400        R     MOV     A,#HIGH pos_pid_str
02D0 3E                ADDC    A,R6
02D1 F583              MOV     DPH,A
02D3 E0                MOVX    A,@DPTR
02D4 FD                MOV     R5,A
02D5 7400        R     MOV     A,#LOW packet_data+042H
02D7 2F                ADD     A,R7
02D8 F582              MOV     DPL,A
02DA 7400        R     MOV     A,#HIGH packet_data+042H
02DC 3E                ADDC    A,R6
02DD F583              MOV     DPH,A
02DF ED                MOV     A,R5
02E0 F0                MOVX    @DPTR,A
02E1 E500        R     MOV     A,i+01H
02E3 1500        R     DEC     i+01H
02E5 7002              JNZ     ?C0259
C51 COMPILER V9.51   COMMAND_PROCESSING                                                    10/12/2016 17:30:47 PAGE 37  

02E7 1500        R     DEC     i
02E9         ?C0259:
02E9 80CE              SJMP    ?C0050
02EB         ?C0051:
                                           ; SOURCE LINE # 328
02EB E4                CLR     A
02EC 900000      R     MOV     DPTR,#packet_data+066H
02EF F0                MOVX    @DPTR,A
                                           ; SOURCE LINE # 329
02F0 A3                INC     DPTR
02F1 04                INC     A
02F2 F0                MOVX    @DPTR,A
                                           ; SOURCE LINE # 330
02F3 900000      E     MOV     DPTR,#c_mem+010H
02F6 E0                MOVX    A,@DPTR
02F7 900000      R     MOV     DPTR,#packet_data+068H
02FA F0                MOVX    @DPTR,A
                                           ; SOURCE LINE # 331
02FB 601F              JZ      ?C0053
                                           ; SOURCE LINE # 332
02FD 900000      E     MOV     DPTR,#?_strcat?BYTE+03H
0300 74FF              MOV     A,#0FFH
0302 F0                MOVX    @DPTR,A
0303 A3                INC     DPTR
0304 7400        R     MOV     A,#HIGH ?SC_0
0306 F0                MOVX    @DPTR,A
0307 A3                INC     DPTR
0308 7400        R     MOV     A,#LOW ?SC_0
030A F0                MOVX    @DPTR,A
030B 7B01              MOV     R3,#01H
030D 7A00        R     MOV     R2,#HIGH startup_str
030F 7900        R     MOV     R1,#LOW startup_str
0311 120000      E     LCALL   _strcat
                                           ; SOURCE LINE # 333
0314 900000      R     MOV     DPTR,#string_lenght
0317 741C              MOV     A,#01CH
0319 F0                MOVX    @DPTR,A
                                           ; SOURCE LINE # 334
031A 801D              SJMP    ?C0054
031C         ?C0053:
                                           ; SOURCE LINE # 335
                                           ; SOURCE LINE # 336
031C 900000      E     MOV     DPTR,#?_strcat?BYTE+03H
031F 74FF              MOV     A,#0FFH
0321 F0                MOVX    @DPTR,A
0322 A3                INC     DPTR
0323 7400        R     MOV     A,#HIGH ?SC_6
0325 F0                MOVX    @DPTR,A
0326 A3                INC     DPTR
0327 7400        R     MOV     A,#LOW ?SC_6
0329 F0                MOVX    @DPTR,A
032A 7B01              MOV     R3,#01H
032C 7A00        R     MOV     R2,#HIGH startup_str
032E 7900        R     MOV     R1,#LOW startup_str
0330 120000      E     LCALL   _strcat
                                           ; SOURCE LINE # 337
0333 900000      R     MOV     DPTR,#string_lenght
0336 741B              MOV     A,#01BH
0338 F0                MOVX    @DPTR,A
                                           ; SOURCE LINE # 338
0339         ?C0054:
                                           ; SOURCE LINE # 339
C51 COMPILER V9.51   COMMAND_PROCESSING                                                    10/12/2016 17:30:47 PAGE 38  

0339 900000      R     MOV     DPTR,#string_lenght
033C E0                MOVX    A,@DPTR
033D 750000      R     MOV     i,#00H
0340 F500        R     MOV     i+01H,A
0342         ?C0055:
0342 E500        R     MOV     A,i+01H
0344 4500        R     ORL     A,i
0346 602E              JZ      ?C0056
                                           ; SOURCE LINE # 340
0348 900000      R     MOV     DPTR,#string_lenght
034B E0                MOVX    A,@DPTR
034C C3                CLR     C
034D 9500        R     SUBB    A,i+01H
034F FF                MOV     R7,A
0350 E4                CLR     A
0351 9500        R     SUBB    A,i
0353 FE                MOV     R6,A
0354 7400        R     MOV     A,#LOW startup_str
0356 2F                ADD     A,R7
0357 F582              MOV     DPL,A
0359 7400        R     MOV     A,#HIGH startup_str
035B 3E                ADDC    A,R6
035C F583              MOV     DPH,A
035E E0                MOVX    A,@DPTR
035F FD                MOV     R5,A
0360 7400        R     MOV     A,#LOW packet_data+069H
0362 2F                ADD     A,R7
0363 F582              MOV     DPL,A
0365 7400        R     MOV     A,#HIGH packet_data+069H
0367 3E                ADDC    A,R6
0368 F583              MOV     DPH,A
036A ED                MOV     A,R5
036B F0                MOVX    @DPTR,A
036C E500        R     MOV     A,i+01H
036E 1500        R     DEC     i+01H
0370 7002              JNZ     ?C0260
0372 1500        R     DEC     i
0374         ?C0260:
0374 80CC              SJMP    ?C0055
0376         ?C0056:
                                           ; SOURCE LINE # 342
0376 900000      R     MOV     DPTR,#string_lenght
0379 E0                MOVX    A,@DPTR
037A 2400        R     ADD     A,#LOW packet_data+069H
037C F582              MOV     DPL,A
037E E4                CLR     A
037F 3400        R     ADDC    A,#HIGH packet_data+069H
0381 F583              MOV     DPH,A
0383 7403              MOV     A,#03H
0385 F0                MOVX    @DPTR,A
                                           ; SOURCE LINE # 346
0386 900000      R     MOV     DPTR,#packet_data+098H
0389 14                DEC     A
038A F0                MOVX    @DPTR,A
                                           ; SOURCE LINE # 347
038B A3                INC     DPTR
038C 04                INC     A
038D F0                MOVX    @DPTR,A
                                           ; SOURCE LINE # 348
038E E4                CLR     A
038F F500        R     MOV     i,A
0391 F500        R     MOV     i+01H,A
C51 COMPILER V9.51   COMMAND_PROCESSING                                                    10/12/2016 17:30:47 PAGE 39  

0393         ?C0058:
0393 C3                CLR     C
0394 E500        R     MOV     A,i+01H
0396 9402              SUBB    A,#02H
0398 E500        R     MOV     A,i
039A 9400              SUBB    A,#00H
039C 5026              JNC     ?C0059
                                           ; SOURCE LINE # 349
039E 7400        E     MOV     A,#LOW c_mem+011H
03A0 2500        R     ADD     A,i+01H
03A2 F582              MOV     DPL,A
03A4 7400        E     MOV     A,#HIGH c_mem+011H
03A6 3500        R     ADDC    A,i
03A8 F583              MOV     DPH,A
03AA E0                MOVX    A,@DPTR
03AB FF                MOV     R7,A
03AC 7400        R     MOV     A,#LOW packet_data+09AH
03AE 2500        R     ADD     A,i+01H
03B0 F582              MOV     DPL,A
03B2 7400        R     MOV     A,#HIGH packet_data+09AH
03B4 3500        R     ADDC    A,i
03B6 F583              MOV     DPH,A
03B8 EF                MOV     A,R7
03B9 F0                MOVX    @DPTR,A
03BA 0500        R     INC     i+01H
03BC E500        R     MOV     A,i+01H
03BE 7002              JNZ     ?C0261
03C0 0500        R     INC     i
03C2         ?C0261:
03C2 80CF              SJMP    ?C0058
03C4         ?C0059:
                                           ; SOURCE LINE # 350
03C4 750000      R     MOV     i,#00H
03C7 850000      R     MOV     i+01H,res_str_len
03CA         ?C0061:
03CA E500        R     MOV     A,i+01H
03CC 4500        R     ORL     A,i
03CE 602C              JZ      ?C0062
                                           ; SOURCE LINE # 351
03D0 C3                CLR     C
03D1 E500        R     MOV     A,res_str_len
03D3 9500        R     SUBB    A,i+01H
03D5 FF                MOV     R7,A
03D6 E4                CLR     A
03D7 9500        R     SUBB    A,i
03D9 FE                MOV     R6,A
03DA 7400        R     MOV     A,#LOW res_str
03DC 2F                ADD     A,R7
03DD F582              MOV     DPL,A
03DF 7400        R     MOV     A,#HIGH res_str
03E1 3E                ADDC    A,R6
03E2 F583              MOV     DPH,A
03E4 E0                MOVX    A,@DPTR
03E5 FD                MOV     R5,A
03E6 7400        R     MOV     A,#LOW packet_data+09DH
03E8 2F                ADD     A,R7
03E9 F582              MOV     DPL,A
03EB 7400        R     MOV     A,#HIGH packet_data+09DH
03ED 3E                ADDC    A,R6
03EE F583              MOV     DPH,A
03F0 ED                MOV     A,R5
03F1 F0                MOVX    @DPTR,A
C51 COMPILER V9.51   COMMAND_PROCESSING                                                    10/12/2016 17:30:47 PAGE 40  

03F2 E500        R     MOV     A,i+01H
03F4 1500        R     DEC     i+01H
03F6 7002              JNZ     ?C0262
03F8 1500        R     DEC     i
03FA         ?C0262:
03FA 80CE              SJMP    ?C0061
03FC         ?C0062:
                                           ; SOURCE LINE # 355
03FC 900000      R     MOV     DPTR,#packet_data+0CAH
03FF 7403              MOV     A,#03H
0401 F0                MOVX    @DPTR,A
                                           ; SOURCE LINE # 356
0402 A3                INC     DPTR
0403 F0                MOVX    @DPTR,A
                                           ; SOURCE LINE # 357
0404 E4                CLR     A
0405 F500        R     MOV     i,A
0407 F500        R     MOV     i+01H,A
0409         ?C0064:
0409 C3                CLR     C
040A E500        R     MOV     A,i+01H
040C 9402              SUBB    A,#02H
040E E500        R     MOV     A,i
0410 9400              SUBB    A,#00H
0412 5059              JNC     ?C0065
                                           ; SOURCE LINE # 358
0414 E500        R     MOV     A,i+01H
0416 AE00        R     MOV     R6,i
0418 7802              MOV     R0,#02H
041A         ?C0263:
041A C3                CLR     C
041B 33                RLC     A
041C CE                XCH     A,R6
041D 33                RLC     A
041E CE                XCH     A,R6
041F D8F9              DJNZ    R0,?C0263
0421 2400        E     ADD     A,#LOW c_mem+013H
0423 F582              MOV     DPL,A
0425 7400        E     MOV     A,#HIGH c_mem+013H
0427 3E                ADDC    A,R6
0428 F583              MOV     DPH,A
042A E0                MOVX    A,@DPTR
042B FC                MOV     R4,A
042C A3                INC     DPTR
042D E0                MOVX    A,@DPTR
042E FD                MOV     R5,A
042F A3                INC     DPTR
0430 E0                MOVX    A,@DPTR
0431 FE                MOV     R6,A
0432 A3                INC     DPTR
0433 E0                MOVX    A,@DPTR
0434 FF                MOV     R7,A
0435 7400        E     MOV     A,#LOW c_mem+011H
0437 2500        R     ADD     A,i+01H
0439 F582              MOV     DPL,A
043B 7400        E     MOV     A,#HIGH c_mem+011H
043D 3500        R     ADDC    A,i
043F F583              MOV     DPH,A
0441 E0                MOVX    A,@DPTR
0442 F9                MOV     R1,A
0443 F8                MOV     R0,A
0444 120000      E     LCALL   ?C?SLSHR
C51 COMPILER V9.51   COMMAND_PROCESSING                                                    10/12/2016 17:30:47 PAGE 41  

0447 AD07              MOV     R5,AR7
0449 AC06              MOV     R4,AR6
044B E500        R     MOV     A,i+01H
044D 25E0              ADD     A,ACC
044F FF                MOV     R7,A
0450 E500        R     MOV     A,i
0452 33                RLC     A
0453 FE                MOV     R6,A
0454 7400        R     MOV     A,#LOW packet_data+0CCH
0456 2F                ADD     A,R7
0457 F582              MOV     DPL,A
0459 7400        R     MOV     A,#HIGH packet_data+0CCH
045B 3E                ADDC    A,R6
045C F583              MOV     DPH,A
045E EC                MOV     A,R4
045F F0                MOVX    @DPTR,A
0460 A3                INC     DPTR
0461 ED                MOV     A,R5
0462 F0                MOVX    @DPTR,A
0463 0500        R     INC     i+01H
0465 E500        R     MOV     A,i+01H
0467 7002              JNZ     ?C0264
0469 0500        R     INC     i
046B         ?C0264:
046B 809C              SJMP    ?C0064
046D         ?C0065:
                                           ; SOURCE LINE # 359
046D 750000      R     MOV     i,#00H
0470 850000      R     MOV     i+01H,m_off_str_len
0473         ?C0067:
0473 E500        R     MOV     A,i+01H
0475 4500        R     ORL     A,i
0477 602C              JZ      ?C0068
                                           ; SOURCE LINE # 360
0479 C3                CLR     C
047A E500        R     MOV     A,m_off_str_len
047C 9500        R     SUBB    A,i+01H
047E FF                MOV     R7,A
047F E4                CLR     A
0480 9500        R     SUBB    A,i
0482 FE                MOV     R6,A
0483 7400        R     MOV     A,#LOW m_off_str
0485 2F                ADD     A,R7
0486 F582              MOV     DPL,A
0488 7400        R     MOV     A,#HIGH m_off_str
048A 3E                ADDC    A,R6
048B F583              MOV     DPH,A
048D E0                MOVX    A,@DPTR
048E FD                MOV     R5,A
048F 7400        R     MOV     A,#LOW packet_data+0D2H
0491 2F                ADD     A,R7
0492 F582              MOV     DPL,A
0494 7400        R     MOV     A,#HIGH packet_data+0D2H
0496 3E                ADDC    A,R6
0497 F583              MOV     DPH,A
0499 ED                MOV     A,R5
049A F0                MOVX    @DPTR,A
049B E500        R     MOV     A,i+01H
049D 1500        R     DEC     i+01H
049F 7002              JNZ     ?C0265
04A1 1500        R     DEC     i
04A3         ?C0265:
C51 COMPILER V9.51   COMMAND_PROCESSING                                                    10/12/2016 17:30:47 PAGE 42  

04A3 80CE              SJMP    ?C0067
04A5         ?C0068:
                                           ; SOURCE LINE # 364
04A5 900000      R     MOV     DPTR,#packet_data+0FCH
04A8 7407              MOV     A,#07H
04AA F0                MOVX    @DPTR,A
                                           ; SOURCE LINE # 365
04AB A3                INC     DPTR
04AC 7403              MOV     A,#03H
04AE F0                MOVX    @DPTR,A
                                           ; SOURCE LINE # 366
04AF E4                CLR     A
04B0 F500        R     MOV     i,A
04B2 F500        R     MOV     i+01H,A
04B4         ?C0070:
04B4 C3                CLR     C
04B5 E500        R     MOV     A,i+01H
04B7 9402              SUBB    A,#02H
04B9 E500        R     MOV     A,i
04BB 9400              SUBB    A,#00H
04BD 5054              JNC     ?C0071
                                           ; SOURCE LINE # 367
04BF E500        R     MOV     A,i+01H
04C1 AE00        R     MOV     R6,i
04C3 7802              MOV     R0,#02H
04C5         ?C0266:
04C5 C3                CLR     C
04C6 33                RLC     A
04C7 CE                XCH     A,R6
04C8 33                RLC     A
04C9 CE                XCH     A,R6
04CA D8F9              DJNZ    R0,?C0266
04CC 2400        E     ADD     A,#LOW c_mem+01BH
04CE F582              MOV     DPL,A
04D0 7400        E     MOV     A,#HIGH c_mem+01BH
04D2 3E                ADDC    A,R6
04D3 F583              MOV     DPH,A
04D5 E0                MOVX    A,@DPTR
04D6 FC                MOV     R4,A
04D7 A3                INC     DPTR
04D8 E0                MOVX    A,@DPTR
04D9 FD                MOV     R5,A
04DA A3                INC     DPTR
04DB E0                MOVX    A,@DPTR
04DC FE                MOV     R6,A
04DD A3                INC     DPTR
04DE E0                MOVX    A,@DPTR
04DF FF                MOV     R7,A
04E0 C004              PUSH    AR4
04E2 C005              PUSH    AR5
04E4 C006              PUSH    AR6
04E6 C007              PUSH    AR7
04E8 E500        R     MOV     A,i+01H
04EA AE00        R     MOV     R6,i
04EC 7802              MOV     R0,#02H
04EE         ?C0267:
04EE C3                CLR     C
04EF 33                RLC     A
04F0 CE                XCH     A,R6
04F1 33                RLC     A
04F2 CE                XCH     A,R6
04F3 D8F9              DJNZ    R0,?C0267
C51 COMPILER V9.51   COMMAND_PROCESSING                                                    10/12/2016 17:30:47 PAGE 43  

04F5 2400        R     ADD     A,#LOW packet_data+0FEH
04F7 F582              MOV     DPL,A
04F9 7400        R     MOV     A,#HIGH packet_data+0FEH
04FB 3E                ADDC    A,R6
04FC F583              MOV     DPH,A
04FE D007              POP     AR7
0500 D006              POP     AR6
0502 D005              POP     AR5
0504 D004              POP     AR4
0506 120000      E     LCALL   ?C?LSTXDATA
0509 0500        R     INC     i+01H
050B E500        R     MOV     A,i+01H
050D 7002              JNZ     ?C0268
050F 0500        R     INC     i
0511         ?C0268:
0511 80A1              SJMP    ?C0070
0513         ?C0071:
                                           ; SOURCE LINE # 368
0513 E4                CLR     A
0514 F500        R     MOV     i,A
0516 F500        R     MOV     i+01H,A
0518         ?C0073:
0518 7B01              MOV     R3,#01H
051A 7A00        R     MOV     R2,#HIGH mult_str
051C 7900        R     MOV     R1,#LOW mult_str
051E 120000      E     LCALL   _strlen
0521 C3                CLR     C
0522 E500        R     MOV     A,i+01H
0524 9F                SUBB    A,R7
0525 E500        R     MOV     A,i
0527 9E                SUBB    A,R6
0528 5026              JNC     ?C0074
                                           ; SOURCE LINE # 369
052A 7400        R     MOV     A,#LOW mult_str
052C 2500        R     ADD     A,i+01H
052E F582              MOV     DPL,A
0530 7400        R     MOV     A,#HIGH mult_str
0532 3500        R     ADDC    A,i
0534 F583              MOV     DPH,A
0536 E0                MOVX    A,@DPTR
0537 FF                MOV     R7,A
0538 7400        R     MOV     A,#LOW packet_data+010AH
053A 2500        R     ADD     A,i+01H
053C F582              MOV     DPL,A
053E 7400        R     MOV     A,#HIGH packet_data+010AH
0540 3500        R     ADDC    A,i
0542 F583              MOV     DPH,A
0544 EF                MOV     A,R7
0545 F0                MOVX    @DPTR,A
0546 0500        R     INC     i+01H
0548 E500        R     MOV     A,i+01H
054A 7002              JNZ     ?C0269
054C 0500        R     INC     i
054E         ?C0269:
054E 80C8              SJMP    ?C0073
0550         ?C0074:
                                           ; SOURCE LINE # 373
0550 E4                CLR     A
0551 900000      R     MOV     DPTR,#packet_data+012EH
0554 F0                MOVX    @DPTR,A
                                           ; SOURCE LINE # 374
0555 A3                INC     DPTR
C51 COMPILER V9.51   COMMAND_PROCESSING                                                    10/12/2016 17:30:47 PAGE 44  

0556 04                INC     A
0557 F0                MOVX    @DPTR,A
                                           ; SOURCE LINE # 375
0558 900000      E     MOV     DPTR,#c_mem+023H
055B E0                MOVX    A,@DPTR
055C 900000      R     MOV     DPTR,#packet_data+0130H
055F F0                MOVX    @DPTR,A
                                           ; SOURCE LINE # 376
0560 601F              JZ      ?C0076
                                           ; SOURCE LINE # 377
0562 900000      E     MOV     DPTR,#?_strcat?BYTE+03H
0565 74FF              MOV     A,#0FFH
0567 F0                MOVX    @DPTR,A
0568 A3                INC     DPTR
0569 7400        R     MOV     A,#HIGH ?SC_0
056B F0                MOVX    @DPTR,A
056C A3                INC     DPTR
056D 7400        R     MOV     A,#LOW ?SC_0
056F F0                MOVX    @DPTR,A
0570 7B01              MOV     R3,#01H
0572 7A00        R     MOV     R2,#HIGH pos_lim_flag_str
0574 7900        R     MOV     R1,#LOW pos_lim_flag_str
0576 120000      E     LCALL   _strcat
                                           ; SOURCE LINE # 378
0579 900000      R     MOV     DPTR,#string_lenght
057C 741C              MOV     A,#01CH
057E F0                MOVX    @DPTR,A
                                           ; SOURCE LINE # 379
057F 801D              SJMP    ?C0077
0581         ?C0076:
                                           ; SOURCE LINE # 380
                                           ; SOURCE LINE # 381
0581 900000      E     MOV     DPTR,#?_strcat?BYTE+03H
0584 74FF              MOV     A,#0FFH
0586 F0                MOVX    @DPTR,A
0587 A3                INC     DPTR
0588 7400        R     MOV     A,#HIGH ?SC_6
058A F0                MOVX    @DPTR,A
058B A3                INC     DPTR
058C 7400        R     MOV     A,#LOW ?SC_6
058E F0                MOVX    @DPTR,A
058F 7B01              MOV     R3,#01H
0591 7A00        R     MOV     R2,#HIGH pos_lim_flag_str
0593 7900        R     MOV     R1,#LOW pos_lim_flag_str
0595 120000      E     LCALL   _strcat
                                           ; SOURCE LINE # 382
0598 900000      R     MOV     DPTR,#string_lenght
059B 741B              MOV     A,#01BH
059D F0                MOVX    @DPTR,A
                                           ; SOURCE LINE # 383
059E         ?C0077:
                                           ; SOURCE LINE # 384
059E 900000      R     MOV     DPTR,#string_lenght
05A1 E0                MOVX    A,@DPTR
05A2 750000      R     MOV     i,#00H
05A5 F500        R     MOV     i+01H,A
05A7         ?C0078:
05A7 E500        R     MOV     A,i+01H
05A9 4500        R     ORL     A,i
05AB 602E              JZ      ?C0079
                                           ; SOURCE LINE # 385
05AD 900000      R     MOV     DPTR,#string_lenght
C51 COMPILER V9.51   COMMAND_PROCESSING                                                    10/12/2016 17:30:47 PAGE 45  

05B0 E0                MOVX    A,@DPTR
05B1 C3                CLR     C
05B2 9500        R     SUBB    A,i+01H
05B4 FF                MOV     R7,A
05B5 E4                CLR     A
05B6 9500        R     SUBB    A,i
05B8 FE                MOV     R6,A
05B9 7400        R     MOV     A,#LOW pos_lim_flag_str
05BB 2F                ADD     A,R7
05BC F582              MOV     DPL,A
05BE 7400        R     MOV     A,#HIGH pos_lim_flag_str
05C0 3E                ADDC    A,R6
05C1 F583              MOV     DPH,A
05C3 E0                MOVX    A,@DPTR
05C4 FD                MOV     R5,A
05C5 7400        R     MOV     A,#LOW packet_data+0131H
05C7 2F                ADD     A,R7
05C8 F582              MOV     DPL,A
05CA 7400        R     MOV     A,#HIGH packet_data+0131H
05CC 3E                ADDC    A,R6
05CD F583              MOV     DPH,A
05CF ED                MOV     A,R5
05D0 F0                MOVX    @DPTR,A
05D1 E500        R     MOV     A,i+01H
05D3 1500        R     DEC     i+01H
05D5 7002              JNZ     ?C0270
05D7 1500        R     DEC     i
05D9         ?C0270:
05D9 80CC              SJMP    ?C0078
05DB         ?C0079:
                                           ; SOURCE LINE # 387
05DB 900000      R     MOV     DPTR,#string_lenght
05DE E0                MOVX    A,@DPTR
05DF 2400        R     ADD     A,#LOW packet_data+0131H
05E1 F582              MOV     DPL,A
05E3 E4                CLR     A
05E4 3400        R     ADDC    A,#HIGH packet_data+0131H
05E6 F583              MOV     DPH,A
05E8 7403              MOV     A,#03H
05EA F0                MOVX    @DPTR,A
                                           ; SOURCE LINE # 391
05EB 900000      R     MOV     DPTR,#packet_data+0160H
05EE 7405              MOV     A,#05H
05F0 F0                MOVX    @DPTR,A
                                           ; SOURCE LINE # 392
05F1 A3                INC     DPTR
05F2 14                DEC     A
05F3 F0                MOVX    @DPTR,A
                                           ; SOURCE LINE # 393
05F4 E4                CLR     A
05F5 F500        R     MOV     i,A
05F7 F500        R     MOV     i+01H,A
05F9         ?C0081:
05F9 C3                CLR     C
05FA E500        R     MOV     A,i+01H
05FC 9402              SUBB    A,#02H
05FE E500        R     MOV     A,i
0600 9400              SUBB    A,#00H
0602 4003              JC      $ + 5H
0604 020000      R     LJMP    ?C0082
                                           ; SOURCE LINE # 394
0607 E500        R     MOV     A,i+01H
C51 COMPILER V9.51   COMMAND_PROCESSING                                                    10/12/2016 17:30:47 PAGE 46  

0609 AE00        R     MOV     R6,i
060B 7802              MOV     R0,#02H
060D         ?C0271:
060D C3                CLR     C
060E 33                RLC     A
060F CE                XCH     A,R6
0610 33                RLC     A
0611 CE                XCH     A,R6
0612 D8F9              DJNZ    R0,?C0271
0614 2400        E     ADD     A,#LOW c_mem+024H
0616 F582              MOV     DPL,A
0618 7400        E     MOV     A,#HIGH c_mem+024H
061A 3E                ADDC    A,R6
061B F583              MOV     DPH,A
061D E0                MOVX    A,@DPTR
061E FC                MOV     R4,A
061F A3                INC     DPTR
0620 E0                MOVX    A,@DPTR
0621 FD                MOV     R5,A
0622 A3                INC     DPTR
0623 E0                MOVX    A,@DPTR
0624 FE                MOV     R6,A
0625 A3                INC     DPTR
0626 E0                MOVX    A,@DPTR
0627 FF                MOV     R7,A
0628 7400        E     MOV     A,#LOW c_mem+011H
062A 2500        R     ADD     A,i+01H
062C F582              MOV     DPL,A
062E 7400        E     MOV     A,#HIGH c_mem+011H
0630 3500        R     ADDC    A,i
0632 F583              MOV     DPH,A
0634 E0                MOVX    A,@DPTR
0635 F9                MOV     R1,A
0636 F8                MOV     R0,A
0637 120000      E     LCALL   ?C?SLSHR
063A C004              PUSH    AR4
063C C005              PUSH    AR5
063E C006              PUSH    AR6
0640 C007              PUSH    AR7
0642 E500        R     MOV     A,i+01H
0644 AE00        R     MOV     R6,i
0646 7803              MOV     R0,#03H
0648         ?C0272:
0648 C3                CLR     C
0649 33                RLC     A
064A CE                XCH     A,R6
064B 33                RLC     A
064C CE                XCH     A,R6
064D D8F9              DJNZ    R0,?C0272
064F 2400        R     ADD     A,#LOW packet_data+0162H
0651 F582              MOV     DPL,A
0653 7400        R     MOV     A,#HIGH packet_data+0162H
0655 3E                ADDC    A,R6
0656 F583              MOV     DPH,A
0658 D007              POP     AR7
065A D006              POP     AR6
065C D005              POP     AR5
065E D004              POP     AR4
0660 120000      E     LCALL   ?C?LSTXDATA
                                           ; SOURCE LINE # 395
0663 E500        R     MOV     A,i+01H
0665 AE00        R     MOV     R6,i
C51 COMPILER V9.51   COMMAND_PROCESSING                                                    10/12/2016 17:30:47 PAGE 47  

0667 7802              MOV     R0,#02H
0669         ?C0273:
0669 C3                CLR     C
066A 33                RLC     A
066B CE                XCH     A,R6
066C 33                RLC     A
066D CE                XCH     A,R6
066E D8F9              DJNZ    R0,?C0273
0670 2400        E     ADD     A,#LOW c_mem+02CH
0672 F582              MOV     DPL,A
0674 7400        E     MOV     A,#HIGH c_mem+02CH
0676 3E                ADDC    A,R6
0677 F583              MOV     DPH,A
0679 E0                MOVX    A,@DPTR
067A FC                MOV     R4,A
067B A3                INC     DPTR
067C E0                MOVX    A,@DPTR
067D FD                MOV     R5,A
067E A3                INC     DPTR
067F E0                MOVX    A,@DPTR
0680 FE                MOV     R6,A
0681 A3                INC     DPTR
0682 E0                MOVX    A,@DPTR
0683 FF                MOV     R7,A
0684 7400        E     MOV     A,#LOW c_mem+011H
0686 2500        R     ADD     A,i+01H
0688 F582              MOV     DPL,A
068A 7400        E     MOV     A,#HIGH c_mem+011H
068C 3500        R     ADDC    A,i
068E F583              MOV     DPH,A
0690 E0                MOVX    A,@DPTR
0691 F9                MOV     R1,A
0692 F8                MOV     R0,A
0693 120000      E     LCALL   ?C?SLSHR
0696 C004              PUSH    AR4
0698 C005              PUSH    AR5
069A C006              PUSH    AR6
069C C007              PUSH    AR7
069E E500        R     MOV     A,i+01H
06A0 AE00        R     MOV     R6,i
06A2 7803              MOV     R0,#03H
06A4         ?C0274:
06A4 C3                CLR     C
06A5 33                RLC     A
06A6 CE                XCH     A,R6
06A7 33                RLC     A
06A8 CE                XCH     A,R6
06A9 D8F9              DJNZ    R0,?C0274
06AB 2400        R     ADD     A,#LOW packet_data+0166H
06AD F582              MOV     DPL,A
06AF 7400        R     MOV     A,#HIGH packet_data+0166H
06B1 3E                ADDC    A,R6
06B2 F583              MOV     DPH,A
06B4 D007              POP     AR7
06B6 D006              POP     AR6
06B8 D005              POP     AR5
06BA D004              POP     AR4
06BC 120000      E     LCALL   ?C?LSTXDATA
                                           ; SOURCE LINE # 396
06BF 0500        R     INC     i+01H
06C1 E500        R     MOV     A,i+01H
06C3 7002              JNZ     ?C0275
C51 COMPILER V9.51   COMMAND_PROCESSING                                                    10/12/2016 17:30:47 PAGE 48  

06C5 0500        R     INC     i
06C7         ?C0275:
06C7 020000      R     LJMP    ?C0081
06CA         ?C0082:
                                           ; SOURCE LINE # 397
06CA 750000      R     MOV     i,#00H
06CD 850000      R     MOV     i+01H,pos_lim_str_len
06D0         ?C0084:
06D0 E500        R     MOV     A,i+01H
06D2 4500        R     ORL     A,i
06D4 602C              JZ      ?C0085
                                           ; SOURCE LINE # 398
06D6 C3                CLR     C
06D7 E500        R     MOV     A,pos_lim_str_len
06D9 9500        R     SUBB    A,i+01H
06DB FF                MOV     R7,A
06DC E4                CLR     A
06DD 9500        R     SUBB    A,i
06DF FE                MOV     R6,A
06E0 7400        R     MOV     A,#LOW pos_lim_str
06E2 2F                ADD     A,R7
06E3 F582              MOV     DPL,A
06E5 7400        R     MOV     A,#HIGH pos_lim_str
06E7 3E                ADDC    A,R6
06E8 F583              MOV     DPH,A
06EA E0                MOVX    A,@DPTR
06EB FD                MOV     R5,A
06EC 7400        R     MOV     A,#LOW packet_data+0172H
06EE 2F                ADD     A,R7
06EF F582              MOV     DPL,A
06F1 7400        R     MOV     A,#HIGH packet_data+0172H
06F3 3E                ADDC    A,R6
06F4 F583              MOV     DPH,A
06F6 ED                MOV     A,R5
06F7 F0                MOVX    @DPTR,A
06F8 E500        R     MOV     A,i+01H
06FA 1500        R     DEC     i+01H
06FC 7002              JNZ     ?C0276
06FE 1500        R     DEC     i
0700         ?C0276:
0700 80CE              SJMP    ?C0084
0702         ?C0085:
                                           ; SOURCE LINE # 402
0702 900000      R     MOV     DPTR,#packet_data+0192H
0705 7405              MOV     A,#05H
0707 F0                MOVX    @DPTR,A
                                           ; SOURCE LINE # 403
0708 A3                INC     DPTR
0709 7402              MOV     A,#02H
070B F0                MOVX    @DPTR,A
                                           ; SOURCE LINE # 404
070C 900000      E     MOV     DPTR,#c_mem+038H
070F E0                MOVX    A,@DPTR
0710 FC                MOV     R4,A
0711 A3                INC     DPTR
0712 E0                MOVX    A,@DPTR
0713 FD                MOV     R5,A
0714 A3                INC     DPTR
0715 E0                MOVX    A,@DPTR
0716 FE                MOV     R6,A
0717 A3                INC     DPTR
0718 E0                MOVX    A,@DPTR
C51 COMPILER V9.51   COMMAND_PROCESSING                                                    10/12/2016 17:30:47 PAGE 49  

0719 FF                MOV     R7,A
071A 900000      R     MOV     DPTR,#packet_data+0194H
071D 120000      E     LCALL   ?C?LSTXDATA
                                           ; SOURCE LINE # 405
0720 900000      E     MOV     DPTR,#c_mem+03CH
0723 E0                MOVX    A,@DPTR
0724 FC                MOV     R4,A
0725 A3                INC     DPTR
0726 E0                MOVX    A,@DPTR
0727 FD                MOV     R5,A
0728 A3                INC     DPTR
0729 E0                MOVX    A,@DPTR
072A FE                MOV     R6,A
072B A3                INC     DPTR
072C E0                MOVX    A,@DPTR
072D FF                MOV     R7,A
072E 900000      R     MOV     DPTR,#packet_data+0198H
0731 120000      E     LCALL   ?C?LSTXDATA
                                           ; SOURCE LINE # 406
0734 E4                CLR     A
0735 F500        R     MOV     i,A
0737 F500        R     MOV     i+01H,A
0739         ?C0087:
0739 7B01              MOV     R3,#01H
073B 7A00        R     MOV     R2,#HIGH max_step_str
073D 7900        R     MOV     R1,#LOW max_step_str
073F 120000      E     LCALL   _strlen
0742 C3                CLR     C
0743 E500        R     MOV     A,i+01H
0745 9F                SUBB    A,R7
0746 E500        R     MOV     A,i
0748 9E                SUBB    A,R6
0749 5026              JNC     ?C0088
                                           ; SOURCE LINE # 407
074B 7400        R     MOV     A,#LOW max_step_str
074D 2500        R     ADD     A,i+01H
074F F582              MOV     DPL,A
0751 7400        R     MOV     A,#HIGH max_step_str
0753 3500        R     ADDC    A,i
0755 F583              MOV     DPH,A
0757 E0                MOVX    A,@DPTR
0758 FF                MOV     R7,A
0759 7400        R     MOV     A,#LOW packet_data+019CH
075B 2500        R     ADD     A,i+01H
075D F582              MOV     DPL,A
075F 7400        R     MOV     A,#HIGH packet_data+019CH
0761 3500        R     ADDC    A,i
0763 F583              MOV     DPH,A
0765 EF                MOV     A,R7
0766 F0                MOVX    @DPTR,A
0767 0500        R     INC     i+01H
0769 E500        R     MOV     A,i+01H
076B 7002              JNZ     ?C0277
076D 0500        R     INC     i
076F         ?C0277:
076F 80C8              SJMP    ?C0087
0771         ?C0088:
                                           ; SOURCE LINE # 411
0771 900000      R     MOV     DPTR,#packet_data+01C4H
0774 7403              MOV     A,#03H
0776 F0                MOVX    @DPTR,A
                                           ; SOURCE LINE # 412
C51 COMPILER V9.51   COMMAND_PROCESSING                                                    10/12/2016 17:30:47 PAGE 50  

0777 A3                INC     DPTR
0778 7401              MOV     A,#01H
077A F0                MOVX    @DPTR,A
                                           ; SOURCE LINE # 413
077B 900000      E     MOV     DPTR,#c_mem+0EH
077E E0                MOVX    A,@DPTR
077F FF                MOV     R7,A
0780 A3                INC     DPTR
0781 E0                MOVX    A,@DPTR
0782 900000      R     MOV     DPTR,#packet_data+01C6H
0785 CF                XCH     A,R7
0786 F0                MOVX    @DPTR,A
0787 A3                INC     DPTR
0788 EF                MOV     A,R7
0789 F0                MOVX    @DPTR,A
                                           ; SOURCE LINE # 414
078A 750000      R     MOV     i,#00H
078D 850000      R     MOV     i+01H,curr_limit_str_len
0790         ?C0090:
0790 E500        R     MOV     A,i+01H
0792 4500        R     ORL     A,i
0794 602C              JZ      ?C0091
                                           ; SOURCE LINE # 415
0796 C3                CLR     C
0797 E500        R     MOV     A,curr_limit_str_len
0799 9500        R     SUBB    A,i+01H
079B FF                MOV     R7,A
079C E4                CLR     A
079D 9500        R     SUBB    A,i
079F FE                MOV     R6,A
07A0 7400        R     MOV     A,#LOW curr_limit_str
07A2 2F                ADD     A,R7
07A3 F582              MOV     DPL,A
07A5 7400        R     MOV     A,#HIGH curr_limit_str
07A7 3E                ADDC    A,R6
07A8 F583              MOV     DPH,A
07AA E0                MOVX    A,@DPTR
07AB FD                MOV     R5,A
07AC 7400        R     MOV     A,#LOW packet_data+01C8H
07AE 2F                ADD     A,R7
07AF F582              MOV     DPL,A
07B1 7400        R     MOV     A,#HIGH packet_data+01C8H
07B3 3E                ADDC    A,R6
07B4 F583              MOV     DPH,A
07B6 ED                MOV     A,R5
07B7 F0                MOVX    @DPTR,A
07B8 E500        R     MOV     A,i+01H
07BA 1500        R     DEC     i+01H
07BC 7002              JNZ     ?C0278
07BE 1500        R     DEC     i
07C0         ?C0278:
07C0 80CE              SJMP    ?C0090
07C2         ?C0091:
                                           ; SOURCE LINE # 419
07C2 E4                CLR     A
07C3 900000      R     MOV     DPTR,#packet_data+01F6H
07C6 F0                MOVX    @DPTR,A
                                           ; SOURCE LINE # 420
07C7 A3                INC     DPTR
07C8 04                INC     A
07C9 F0                MOVX    @DPTR,A
                                           ; SOURCE LINE # 421
C51 COMPILER V9.51   COMMAND_PROCESSING                                                    10/12/2016 17:30:47 PAGE 51  

07CA 900000      E     MOV     DPTR,#c_mem+050H
07CD E0                MOVX    A,@DPTR
07CE 900000      R     MOV     DPTR,#packet_data+01F8H
07D1 F0                MOVX    @DPTR,A
                                           ; SOURCE LINE # 422
07D2 601F              JZ      ?C0093
                                           ; SOURCE LINE # 423
07D4 900000      E     MOV     DPTR,#?_strcat?BYTE+03H
07D7 74FF              MOV     A,#0FFH
07D9 F0                MOVX    @DPTR,A
07DA A3                INC     DPTR
07DB 7400        R     MOV     A,#HIGH ?SC_0
07DD F0                MOVX    @DPTR,A
07DE A3                INC     DPTR
07DF 7400        R     MOV     A,#LOW ?SC_0
07E1 F0                MOVX    @DPTR,A
07E2 7B01              MOV     R3,#01H
07E4 7A00        R     MOV     R2,#HIGH pulse_mod_str
07E6 7900        R     MOV     R1,#LOW pulse_mod_str
07E8 120000      E     LCALL   _strcat
                                           ; SOURCE LINE # 424
07EB 900000      R     MOV     DPTR,#string_lenght
07EE 741C              MOV     A,#01CH
07F0 F0                MOVX    @DPTR,A
                                           ; SOURCE LINE # 425
07F1 801D              SJMP    ?C0094
07F3         ?C0093:
                                           ; SOURCE LINE # 426
                                           ; SOURCE LINE # 427
07F3 900000      E     MOV     DPTR,#?_strcat?BYTE+03H
07F6 74FF              MOV     A,#0FFH
07F8 F0                MOVX    @DPTR,A
07F9 A3                INC     DPTR
07FA 7400        R     MOV     A,#HIGH ?SC_6
07FC F0                MOVX    @DPTR,A
07FD A3                INC     DPTR
07FE 7400        R     MOV     A,#LOW ?SC_6
0800 F0                MOVX    @DPTR,A
0801 7B01              MOV     R3,#01H
0803 7A00        R     MOV     R2,#HIGH pulse_mod_str
0805 7900        R     MOV     R1,#LOW pulse_mod_str
0807 120000      E     LCALL   _strcat
                                           ; SOURCE LINE # 428
080A 900000      R     MOV     DPTR,#string_lenght
080D 741B              MOV     A,#01BH
080F F0                MOVX    @DPTR,A
                                           ; SOURCE LINE # 429
0810         ?C0094:
                                           ; SOURCE LINE # 430
0810 900000      R     MOV     DPTR,#string_lenght
0813 E0                MOVX    A,@DPTR
0814 750000      R     MOV     i,#00H
0817 F500        R     MOV     i+01H,A
0819         ?C0095:
0819 E500        R     MOV     A,i+01H
081B 4500        R     ORL     A,i
081D 602E              JZ      ?C0096
                                           ; SOURCE LINE # 431
081F 900000      R     MOV     DPTR,#string_lenght
0822 E0                MOVX    A,@DPTR
0823 C3                CLR     C
0824 9500        R     SUBB    A,i+01H
C51 COMPILER V9.51   COMMAND_PROCESSING                                                    10/12/2016 17:30:47 PAGE 52  

0826 FF                MOV     R7,A
0827 E4                CLR     A
0828 9500        R     SUBB    A,i
082A FE                MOV     R6,A
082B 7400        R     MOV     A,#LOW pulse_mod_str
082D 2F                ADD     A,R7
082E F582              MOV     DPL,A
0830 7400        R     MOV     A,#HIGH pulse_mod_str
0832 3E                ADDC    A,R6
0833 F583              MOV     DPH,A
0835 E0                MOVX    A,@DPTR
0836 FD                MOV     R5,A
0837 7400        R     MOV     A,#LOW packet_data+01F9H
0839 2F                ADD     A,R7
083A F582              MOV     DPL,A
083C 7400        R     MOV     A,#HIGH packet_data+01F9H
083E 3E                ADDC    A,R6
083F F583              MOV     DPH,A
0841 ED                MOV     A,R5
0842 F0                MOVX    @DPTR,A
0843 E500        R     MOV     A,i+01H
0845 1500        R     DEC     i+01H
0847 7002              JNZ     ?C0279
0849 1500        R     DEC     i
084B         ?C0279:
084B 80CC              SJMP    ?C0095
084D         ?C0096:
                                           ; SOURCE LINE # 433
084D 900000      R     MOV     DPTR,#string_lenght
0850 E0                MOVX    A,@DPTR
0851 2400        R     ADD     A,#LOW packet_data+01F9H
0853 F582              MOV     DPL,A
0855 E4                CLR     A
0856 3400        R     ADDC    A,#HIGH packet_data+01F9H
0858 F583              MOV     DPH,A
085A 7403              MOV     A,#03H
085C F0                MOVX    @DPTR,A
                                           ; SOURCE LINE # 437
085D 900000      R     MOV     DPTR,#packet_data+0228H
0860 7405              MOV     A,#05H
0862 F0                MOVX    @DPTR,A
                                           ; SOURCE LINE # 438
0863 A3                INC     DPTR
0864 7402              MOV     A,#02H
0866 F0                MOVX    @DPTR,A
                                           ; SOURCE LINE # 439
0867 900000      E     MOV     DPTR,#c_mem+044H
086A E0                MOVX    A,@DPTR
086B FC                MOV     R4,A
086C A3                INC     DPTR
086D E0                MOVX    A,@DPTR
086E FD                MOV     R5,A
086F A3                INC     DPTR
0870 E0                MOVX    A,@DPTR
0871 FE                MOV     R6,A
0872 A3                INC     DPTR
0873 E0                MOVX    A,@DPTR
0874 FF                MOV     R7,A
0875 900000      R     MOV     DPTR,#packet_data+022AH
0878 120000      E     LCALL   ?C?LSTXDATA
                                           ; SOURCE LINE # 440
087B 900000      E     MOV     DPTR,#c_mem+048H
C51 COMPILER V9.51   COMMAND_PROCESSING                                                    10/12/2016 17:30:47 PAGE 53  

087E E0                MOVX    A,@DPTR
087F FC                MOV     R4,A
0880 A3                INC     DPTR
0881 E0                MOVX    A,@DPTR
0882 FD                MOV     R5,A
0883 A3                INC     DPTR
0884 E0                MOVX    A,@DPTR
0885 FE                MOV     R6,A
0886 A3                INC     DPTR
0887 E0                MOVX    A,@DPTR
0888 FF                MOV     R7,A
0889 900000      R     MOV     DPTR,#packet_data+022EH
088C 120000      E     LCALL   ?C?LSTXDATA
                                           ; SOURCE LINE # 441
088F E4                CLR     A
0890 F500        R     MOV     i,A
0892 F500        R     MOV     i+01H,A
0894         ?C0098:
0894 7B01              MOV     R3,#01H
0896 7A00        R     MOV     R2,#HIGH pressure_bounds_str
0898 7900        R     MOV     R1,#LOW pressure_bounds_str
089A 120000      E     LCALL   _strlen
089D C3                CLR     C
089E E500        R     MOV     A,i+01H
08A0 9F                SUBB    A,R7
08A1 E500        R     MOV     A,i
08A3 9E                SUBB    A,R6
08A4 5026              JNC     ?C0099
                                           ; SOURCE LINE # 442
08A6 7400        R     MOV     A,#LOW pressure_bounds_str
08A8 2500        R     ADD     A,i+01H
08AA F582              MOV     DPL,A
08AC 7400        R     MOV     A,#HIGH pressure_bounds_str
08AE 3500        R     ADDC    A,i
08B0 F583              MOV     DPH,A
08B2 E0                MOVX    A,@DPTR
08B3 FF                MOV     R7,A
08B4 7400        R     MOV     A,#LOW packet_data+0232H
08B6 2500        R     ADD     A,i+01H
08B8 F582              MOV     DPL,A
08BA 7400        R     MOV     A,#HIGH packet_data+0232H
08BC 3500        R     ADDC    A,i
08BE F583              MOV     DPH,A
08C0 EF                MOV     A,R7
08C1 F0                MOVX    @DPTR,A
08C2 0500        R     INC     i+01H
08C4 E500        R     MOV     A,i+01H
08C6 7002              JNZ     ?C0280
08C8 0500        R     INC     i
08CA         ?C0280:
08CA 80C8              SJMP    ?C0098
08CC         ?C0099:
                                           ; SOURCE LINE # 446
08CC 900000      R     MOV     DPTR,#packet_data+025AH
08CF 7405              MOV     A,#05H
08D1 F0                MOVX    @DPTR,A
                                           ; SOURCE LINE # 447
08D2 A3                INC     DPTR
08D3 7401              MOV     A,#01H
08D5 F0                MOVX    @DPTR,A
                                           ; SOURCE LINE # 448
08D6 900000      E     MOV     DPTR,#c_mem+055H
C51 COMPILER V9.51   COMMAND_PROCESSING                                                    10/12/2016 17:30:47 PAGE 54  

08D9 E0                MOVX    A,@DPTR
08DA FC                MOV     R4,A
08DB A3                INC     DPTR
08DC E0                MOVX    A,@DPTR
08DD FD                MOV     R5,A
08DE A3                INC     DPTR
08DF E0                MOVX    A,@DPTR
08E0 FE                MOV     R6,A
08E1 A3                INC     DPTR
08E2 E0                MOVX    A,@DPTR
08E3 FF                MOV     R7,A
08E4 900000      R     MOV     DPTR,#packet_data+025CH
08E7 120000      E     LCALL   ?C?LSTXDATA
                                           ; SOURCE LINE # 449
08EA E4                CLR     A
08EB F500        R     MOV     i,A
08ED F500        R     MOV     i+01H,A
08EF         ?C0101:
08EF 7B01              MOV     R3,#01H
08F1 7A00        R     MOV     R2,#HIGH max_step_str
08F3 7900        R     MOV     R1,#LOW max_step_str
08F5 120000      E     LCALL   _strlen
08F8 C3                CLR     C
08F9 E500        R     MOV     A,i+01H
08FB 9F                SUBB    A,R7
08FC E500        R     MOV     A,i
08FE 9E                SUBB    A,R6
08FF 5026              JNC     ?C0102
                                           ; SOURCE LINE # 450
0901 7400        R     MOV     A,#LOW pulse_freq_str
0903 2500        R     ADD     A,i+01H
0905 F582              MOV     DPL,A
0907 7400        R     MOV     A,#HIGH pulse_freq_str
0909 3500        R     ADDC    A,i
090B F583              MOV     DPH,A
090D E0                MOVX    A,@DPTR
090E FF                MOV     R7,A
090F 7400        R     MOV     A,#LOW packet_data+0260H
0911 2500        R     ADD     A,i+01H
0913 F582              MOV     DPL,A
0915 7400        R     MOV     A,#HIGH packet_data+0260H
0917 3500        R     ADDC    A,i
0919 F583              MOV     DPH,A
091B EF                MOV     A,R7
091C F0                MOVX    @DPTR,A
091D 0500        R     INC     i+01H
091F E500        R     MOV     A,i+01H
0921 7002              JNZ     ?C0281
0923 0500        R     INC     i
0925         ?C0281:
0925 80C8              SJMP    ?C0101
0927         ?C0102:
                                           ; SOURCE LINE # 454
0927 900000      R     MOV     DPTR,#packet_data+028CH
092A 7404              MOV     A,#04H
092C F0                MOVX    @DPTR,A
                                           ; SOURCE LINE # 455
092D A3                INC     DPTR
092E 7401              MOV     A,#01H
0930 F0                MOVX    @DPTR,A
                                           ; SOURCE LINE # 456
0931 900000      E     MOV     DPTR,#c_mem+059H
C51 COMPILER V9.51   COMMAND_PROCESSING                                                    10/12/2016 17:30:47 PAGE 55  

0934 E0                MOVX    A,@DPTR
0935 FF                MOV     R7,A
0936 A3                INC     DPTR
0937 E0                MOVX    A,@DPTR
0938 900000      R     MOV     DPTR,#packet_data+028EH
093B CF                XCH     A,R7
093C F0                MOVX    @DPTR,A
093D A3                INC     DPTR
093E EF                MOV     A,R7
093F F0                MOVX    @DPTR,A
                                           ; SOURCE LINE # 457
0940 750000      R     MOV     i,#00H
0943 850000      R     MOV     i+01H,pow_tension_str_len
0946         ?C0104:
0946 E500        R     MOV     A,i+01H
0948 4500        R     ORL     A,i
094A 602C              JZ      ?C0105
                                           ; SOURCE LINE # 458
094C C3                CLR     C
094D E500        R     MOV     A,pow_tension_str_len
094F 9500        R     SUBB    A,i+01H
0951 FF                MOV     R7,A
0952 E4                CLR     A
0953 9500        R     SUBB    A,i
0955 FE                MOV     R6,A
0956 7400        R     MOV     A,#LOW pow_tension_str
0958 2F                ADD     A,R7
0959 F582              MOV     DPL,A
095B 7400        R     MOV     A,#HIGH pow_tension_str
095D 3E                ADDC    A,R6
095E F583              MOV     DPH,A
0960 E0                MOVX    A,@DPTR
0961 FD                MOV     R5,A
0962 7400        R     MOV     A,#LOW packet_data+0290H
0964 2F                ADD     A,R7
0965 F582              MOV     DPL,A
0967 7400        R     MOV     A,#HIGH packet_data+0290H
0969 3E                ADDC    A,R6
096A F583              MOV     DPH,A
096C ED                MOV     A,R5
096D F0                MOVX    @DPTR,A
096E E500        R     MOV     A,i+01H
0970 1500        R     DEC     i+01H
0972 7002              JNZ     ?C0282
0974 1500        R     DEC     i
0976         ?C0282:
0976 80CE              SJMP    ?C0104
0978         ?C0105:
                                           ; SOURCE LINE # 462
0978 750000      R     MOV     i,#00H
097B 850000      R     MOV     i+01H,yes_no_menu_len
097E         ?C0107:
097E E500        R     MOV     A,i+01H
0980 4500        R     ORL     A,i
0982 602C              JZ      ?C0108
                                           ; SOURCE LINE # 463
0984 C3                CLR     C
0985 E500        R     MOV     A,yes_no_menu_len
0987 9500        R     SUBB    A,i+01H
0989 FF                MOV     R7,A
098A E4                CLR     A
098B 9500        R     SUBB    A,i
C51 COMPILER V9.51   COMMAND_PROCESSING                                                    10/12/2016 17:30:47 PAGE 56  

098D FE                MOV     R6,A
098E 7400        R     MOV     A,#LOW yes_no_menu
0990 2F                ADD     A,R7
0991 F582              MOV     DPL,A
0993 7400        R     MOV     A,#HIGH yes_no_menu
0995 3E                ADDC    A,R6
0996 F583              MOV     DPH,A
0998 E0                MOVX    A,@DPTR
0999 FD                MOV     R5,A
099A 7400        R     MOV     A,#LOW packet_data+02BEH
099C 2F                ADD     A,R7
099D F582              MOV     DPL,A
099F 7400        R     MOV     A,#HIGH packet_data+02BEH
09A1 3E                ADDC    A,R6
09A2 F583              MOV     DPH,A
09A4 ED                MOV     A,R5
09A5 F0                MOVX    @DPTR,A
09A6 E500        R     MOV     A,i+01H
09A8 1500        R     DEC     i+01H
09AA 7002              JNZ     ?C0283
09AC 1500        R     DEC     i
09AE         ?C0283:
09AE 80CE              SJMP    ?C0107
09B0         ?C0108:
                                           ; SOURCE LINE # 465
09B0 7B01              MOV     R3,#01H
09B2 7A00        R     MOV     R2,#HIGH packet_data
09B4 7900        R     MOV     R1,#LOW packet_data
09B6 900000      R     MOV     DPTR,#packet_lenght
09B9 E0                MOVX    A,@DPTR
09BA A3                INC     DPTR
09BB E0                MOVX    A,@DPTR
09BC 14                DEC     A
09BD FD                MOV     R5,A
09BE 120000      E     LCALL   _LCRChecksum
09C1 900000      R     MOV     DPTR,#packet_lenght
09C4 E0                MOVX    A,@DPTR
09C5 FC                MOV     R4,A
09C6 A3                INC     DPTR
09C7 E0                MOVX    A,@DPTR
09C8 FD                MOV     R5,A
09C9 2400        R     ADD     A,#LOW packet_data+0FFFFH
09CB F582              MOV     DPL,A
09CD 7400        R     MOV     A,#HIGH packet_data+0FFFFH
09CF 3C                ADDC    A,R4
09D0 F583              MOV     DPH,A
09D2 EF                MOV     A,R7
09D3 F0                MOVX    @DPTR,A
                                           ; SOURCE LINE # 466
09D4 7B01              MOV     R3,#01H
09D6 7A00        R     MOV     R2,#HIGH packet_data
09D8 7900        R     MOV     R1,#LOW packet_data
09DA E4                CLR     A
09DB 900000      R     MOV     DPTR,#?_commWrite?BYTE+05H
09DE F0                MOVX    @DPTR,A
09DF 120000      R     LCALL   _commWrite
                                           ; SOURCE LINE # 467
09E2 120000      E     LCALL   UART_RS485_ClearTxBuffer
                                           ; SOURCE LINE # 468
09E5 22                RET     
                                           ; SOURCE LINE # 471
09E6         ?C0110:
C51 COMPILER V9.51   COMMAND_PROCESSING                                                    10/12/2016 17:30:47 PAGE 57  

                                           ; SOURCE LINE # 472
09E6 900000      E     MOV     DPTR,#g_rx+03H
09E9 E0                MOVX    A,@DPTR
09EA 900000      E     MOV     DPTR,#g_mem+01H
09ED F0                MOVX    @DPTR,A
                                           ; SOURCE LINE # 473
09EE 22                RET     
                                           ; SOURCE LINE # 476
09EF         ?C0111:
                                           ; SOURCE LINE # 477
09EF E4                CLR     A
09F0 FF                MOV     R7,A
09F1 FE                MOV     R6,A
09F2 7D80              MOV     R5,#080H
09F4 7C47              MOV     R4,#047H
09F6 900000      E     MOV     DPTR,#g_rx+03H
09F9 E0                MOVX    A,@DPTR
09FA F8                MOV     R0,A
09FB A3                INC     DPTR
09FC E0                MOVX    A,@DPTR
09FD F9                MOV     R1,A
09FE A3                INC     DPTR
09FF E0                MOVX    A,@DPTR
0A00 FA                MOV     R2,A
0A01 A3                INC     DPTR
0A02 E0                MOVX    A,@DPTR
0A03 FB                MOV     R3,A
0A04 120000      E     LCALL   ?C?FPMUL
0A07 120000      E     LCALL   ?C?CASTF
0A0A 900000      E     MOV     DPTR,#g_mem+02H
0A0D 120000      E     LCALL   ?C?LSTXDATA
                                           ; SOURCE LINE # 478
0A10 E4                CLR     A
0A11 FF                MOV     R7,A
0A12 FE                MOV     R6,A
0A13 7D80              MOV     R5,#080H
0A15 7C47              MOV     R4,#047H
0A17 900000      E     MOV     DPTR,#g_rx+07H
0A1A E0                MOVX    A,@DPTR
0A1B F8                MOV     R0,A
0A1C A3                INC     DPTR
0A1D E0                MOVX    A,@DPTR
0A1E F9                MOV     R1,A
0A1F A3                INC     DPTR
0A20 E0                MOVX    A,@DPTR
0A21 FA                MOV     R2,A
0A22 A3                INC     DPTR
0A23 E0                MOVX    A,@DPTR
0A24 FB                MOV     R3,A
0A25 120000      E     LCALL   ?C?FPMUL
0A28 120000      E     LCALL   ?C?CASTF
0A2B 900000      E     MOV     DPTR,#g_mem+06H
0A2E 120000      E     LCALL   ?C?LSTXDATA
                                           ; SOURCE LINE # 479
0A31 E4                CLR     A
0A32 FF                MOV     R7,A
0A33 FE                MOV     R6,A
0A34 7D80              MOV     R5,#080H
0A36 7C47              MOV     R4,#047H
0A38 900000      E     MOV     DPTR,#g_rx+0BH
0A3B E0                MOVX    A,@DPTR
0A3C F8                MOV     R0,A
C51 COMPILER V9.51   COMMAND_PROCESSING                                                    10/12/2016 17:30:47 PAGE 58  

0A3D A3                INC     DPTR
0A3E E0                MOVX    A,@DPTR
0A3F F9                MOV     R1,A
0A40 A3                INC     DPTR
0A41 E0                MOVX    A,@DPTR
0A42 FA                MOV     R2,A
0A43 A3                INC     DPTR
0A44 E0                MOVX    A,@DPTR
0A45 FB                MOV     R3,A
0A46 120000      E     LCALL   ?C?FPMUL
0A49 120000      E     LCALL   ?C?CASTF
0A4C 900000      E     MOV     DPTR,#g_mem+0AH
0A4F 120000      E     LCALL   ?C?LSTXDATA
                                           ; SOURCE LINE # 480
0A52 22                RET     
                                           ; SOURCE LINE # 483
0A53         ?C0112:
                                           ; SOURCE LINE # 484
0A53 900000      E     MOV     DPTR,#g_rx+03H
0A56 E0                MOVX    A,@DPTR
0A57 6007              JZ      ?C0113
                                           ; SOURCE LINE # 485
0A59 900000      E     MOV     DPTR,#g_mem+010H
0A5C 7403              MOV     A,#03H
0A5E F0                MOVX    @DPTR,A
0A5F 22                RET     
0A60         ?C0113:
                                           ; SOURCE LINE # 487
0A60 E4                CLR     A
0A61 900000      E     MOV     DPTR,#g_mem+010H
0A64 F0                MOVX    @DPTR,A
                                           ; SOURCE LINE # 488
0A65 22                RET     
                                           ; SOURCE LINE # 491
0A66         ?C0115:
                                           ; SOURCE LINE # 492
0A66 E4                CLR     A
0A67 F500        R     MOV     i,A
0A69 F500        R     MOV     i+01H,A
0A6B         ?C0116:
0A6B C3                CLR     C
0A6C E500        R     MOV     A,i+01H
0A6E 9402              SUBB    A,#02H
0A70 E500        R     MOV     A,i
0A72 9400              SUBB    A,#00H
0A74 4003              JC      $ + 5H
0A76 020000      R     LJMP    ?C0142
                                           ; SOURCE LINE # 493
0A79 7400        E     MOV     A,#LOW g_rx+03H
0A7B 2500        R     ADD     A,i+01H
0A7D F582              MOV     DPL,A
0A7F 7400        E     MOV     A,#HIGH g_rx+03H
0A81 3500        R     ADDC    A,i
0A83 F583              MOV     DPH,A
0A85 E0                MOVX    A,@DPTR
0A86 FF                MOV     R7,A
0A87 7400        E     MOV     A,#LOW g_mem+011H
0A89 2500        R     ADD     A,i+01H
0A8B F582              MOV     DPL,A
0A8D 7400        E     MOV     A,#HIGH g_mem+011H
0A8F 3500        R     ADDC    A,i
0A91 F583              MOV     DPH,A
C51 COMPILER V9.51   COMMAND_PROCESSING                                                    10/12/2016 17:30:47 PAGE 59  

0A93 EF                MOV     A,R7
0A94 F0                MOVX    @DPTR,A
0A95 0500        R     INC     i+01H
0A97 E500        R     MOV     A,i+01H
0A99 7002              JNZ     ?C0284
0A9B 0500        R     INC     i
0A9D         ?C0284:
0A9D 80CC              SJMP    ?C0116
                                           ; SOURCE LINE # 494
                                           ; SOURCE LINE # 497
0A9F         ?C0119:
                                           ; SOURCE LINE # 498
0A9F E4                CLR     A
0AA0 F500        R     MOV     i,A
0AA2 F500        R     MOV     i+01H,A
0AA4         ?C0120:
0AA4 C3                CLR     C
0AA5 E500        R     MOV     A,i+01H
0AA7 9402              SUBB    A,#02H
0AA9 E500        R     MOV     A,i
0AAB 9400              SUBB    A,#00H
0AAD 4003              JC      $ + 5H
0AAF 020000      R     LJMP    ?C0121
                                           ; SOURCE LINE # 499
0AB2 E500        R     MOV     A,i+01H
0AB4 25E0              ADD     A,ACC
0AB6 FF                MOV     R7,A
0AB7 E500        R     MOV     A,i
0AB9 33                RLC     A
0ABA FE                MOV     R6,A
0ABB 7400        E     MOV     A,#LOW g_rx+03H
0ABD 2F                ADD     A,R7
0ABE F582              MOV     DPL,A
0AC0 7400        E     MOV     A,#HIGH g_rx+03H
0AC2 3E                ADDC    A,R6
0AC3 F583              MOV     DPH,A
0AC5 E0                MOVX    A,@DPTR
0AC6 FE                MOV     R6,A
0AC7 A3                INC     DPTR
0AC8 E0                MOVX    A,@DPTR
0AC9 FF                MOV     R7,A
0ACA EE                MOV     A,R6
0ACB 33                RLC     A
0ACC 95E0              SUBB    A,ACC
0ACE FD                MOV     R5,A
0ACF FC                MOV     R4,A
0AD0 C004              PUSH    AR4
0AD2 C005              PUSH    AR5
0AD4 C006              PUSH    AR6
0AD6 C007              PUSH    AR7
0AD8 E500        R     MOV     A,i+01H
0ADA AE00        R     MOV     R6,i
0ADC 7802              MOV     R0,#02H
0ADE         ?C0285:
0ADE C3                CLR     C
0ADF 33                RLC     A
0AE0 CE                XCH     A,R6
0AE1 33                RLC     A
0AE2 CE                XCH     A,R6
0AE3 D8F9              DJNZ    R0,?C0285
0AE5 FB                MOV     R3,A
0AE6 AA06              MOV     R2,AR6
C51 COMPILER V9.51   COMMAND_PROCESSING                                                    10/12/2016 17:30:47 PAGE 60  

0AE8 2400        E     ADD     A,#LOW g_mem+013H
0AEA F582              MOV     DPL,A
0AEC 7400        E     MOV     A,#HIGH g_mem+013H
0AEE 3A                ADDC    A,R2
0AEF F583              MOV     DPH,A
0AF1 D007              POP     AR7
0AF3 D006              POP     AR6
0AF5 D005              POP     AR5
0AF7 D004              POP     AR4
0AF9 120000      E     LCALL   ?C?LSTXDATA
                                           ; SOURCE LINE # 500
0AFC 7400        E     MOV     A,#LOW g_mem+013H
0AFE 2B                ADD     A,R3
0AFF F582              MOV     DPL,A
0B01 7400        E     MOV     A,#HIGH g_mem+013H
0B03 3A                ADDC    A,R2
0B04 F583              MOV     DPH,A
0B06 C083              PUSH    DPH
0B08 C082              PUSH    DPL
0B0A E0                MOVX    A,@DPTR
0B0B FC                MOV     R4,A
0B0C A3                INC     DPTR
0B0D E0                MOVX    A,@DPTR
0B0E FD                MOV     R5,A
0B0F A3                INC     DPTR
0B10 E0                MOVX    A,@DPTR
0B11 FE                MOV     R6,A
0B12 A3                INC     DPTR
0B13 E0                MOVX    A,@DPTR
0B14 FF                MOV     R7,A
0B15 7400        E     MOV     A,#LOW g_mem+011H
0B17 2500        R     ADD     A,i+01H
0B19 F582              MOV     DPL,A
0B1B 7400        E     MOV     A,#HIGH g_mem+011H
0B1D 3500        R     ADDC    A,i
0B1F F583              MOV     DPH,A
0B21 E0                MOVX    A,@DPTR
0B22 F9                MOV     R1,A
0B23 F8                MOV     R0,A
0B24 120000      E     LCALL   ?C?LSHL
0B27 D082              POP     DPL
0B29 D083              POP     DPH
0B2B 120000      E     LCALL   ?C?LSTXDATA
                                           ; SOURCE LINE # 502
0B2E 7400        E     MOV     A,#LOW g_meas+0CH
0B30 2500        R     ADD     A,i+01H
0B32 F582              MOV     DPL,A
0B34 7400        E     MOV     A,#HIGH g_meas+0CH
0B36 3500        R     ADDC    A,i
0B38 F583              MOV     DPH,A
0B3A E4                CLR     A
0B3B F0                MOVX    @DPTR,A
                                           ; SOURCE LINE # 503
0B3C 0500        R     INC     i+01H
0B3E E500        R     MOV     A,i+01H
0B40 7002              JNZ     ?C0286
0B42 0500        R     INC     i
0B44         ?C0286:
0B44 020000      R     LJMP    ?C0120
0B47         ?C0121:
                                           ; SOURCE LINE # 504
0B47 D200        E     SETB    reset_last_value_flag
C51 COMPILER V9.51   COMMAND_PROCESSING                                                    10/12/2016 17:30:47 PAGE 61  

                                           ; SOURCE LINE # 505
0B49 22                RET     
                                           ; SOURCE LINE # 508
0B4A         ?C0123:
                                           ; SOURCE LINE # 509
0B4A E4                CLR     A
0B4B F500        R     MOV     i,A
0B4D F500        R     MOV     i+01H,A
0B4F         ?C0124:
0B4F C3                CLR     C
0B50 E500        R     MOV     A,i+01H
0B52 9402              SUBB    A,#02H
0B54 E500        R     MOV     A,i
0B56 9400              SUBB    A,#00H
0B58 4003              JC      $ + 5H
0B5A 020000      R     LJMP    ?C0142
                                           ; SOURCE LINE # 510
0B5D E500        R     MOV     A,i+01H
0B5F AE00        R     MOV     R6,i
0B61 7802              MOV     R0,#02H
0B63         ?C0287:
0B63 C3                CLR     C
0B64 33                RLC     A
0B65 CE                XCH     A,R6
0B66 33                RLC     A
0B67 CE                XCH     A,R6
0B68 D8F9              DJNZ    R0,?C0287
0B6A 2400        E     ADD     A,#LOW g_rx+03H
0B6C F582              MOV     DPL,A
0B6E 7400        E     MOV     A,#HIGH g_rx+03H
0B70 3E                ADDC    A,R6
0B71 F583              MOV     DPH,A
0B73 E0                MOVX    A,@DPTR
0B74 FC                MOV     R4,A
0B75 A3                INC     DPTR
0B76 E0                MOVX    A,@DPTR
0B77 FD                MOV     R5,A
0B78 A3                INC     DPTR
0B79 E0                MOVX    A,@DPTR
0B7A FE                MOV     R6,A
0B7B A3                INC     DPTR
0B7C E0                MOVX    A,@DPTR
0B7D FF                MOV     R7,A
0B7E C004              PUSH    AR4
0B80 C005              PUSH    AR5
0B82 C006              PUSH    AR6
0B84 C007              PUSH    AR7
0B86 E500        R     MOV     A,i+01H
0B88 AE00        R     MOV     R6,i
0B8A 7802              MOV     R0,#02H
0B8C         ?C0288:
0B8C C3                CLR     C
0B8D 33                RLC     A
0B8E CE                XCH     A,R6
0B8F 33                RLC     A
0B90 CE                XCH     A,R6
0B91 D8F9              DJNZ    R0,?C0288
0B93 2400        E     ADD     A,#LOW g_mem+01BH
0B95 F582              MOV     DPL,A
0B97 7400        E     MOV     A,#HIGH g_mem+01BH
0B99 3E                ADDC    A,R6
0B9A F583              MOV     DPH,A
C51 COMPILER V9.51   COMMAND_PROCESSING                                                    10/12/2016 17:30:47 PAGE 62  

0B9C D007              POP     AR7
0B9E D006              POP     AR6
0BA0 D005              POP     AR5
0BA2 D004              POP     AR4
0BA4 120000      E     LCALL   ?C?LSTXDATA
0BA7 0500        R     INC     i+01H
0BA9 E500        R     MOV     A,i+01H
0BAB 7002              JNZ     ?C0289
0BAD 0500        R     INC     i
0BAF         ?C0289:
0BAF 809E              SJMP    ?C0124
                                           ; SOURCE LINE # 511
                                           ; SOURCE LINE # 514
0BB1         ?C0127:
                                           ; SOURCE LINE # 515
0BB1 900000      E     MOV     DPTR,#g_rx+03H
0BB4 E0                MOVX    A,@DPTR
0BB5 900000      E     MOV     DPTR,#g_mem+023H
0BB8 F0                MOVX    @DPTR,A
                                           ; SOURCE LINE # 516
0BB9 22                RET     
                                           ; SOURCE LINE # 519
0BBA         ?C0128:
                                           ; SOURCE LINE # 520
0BBA E4                CLR     A
0BBB F500        R     MOV     i,A
0BBD F500        R     MOV     i+01H,A
0BBF         ?C0129:
0BBF C3                CLR     C
0BC0 E500        R     MOV     A,i+01H
0BC2 9402              SUBB    A,#02H
0BC4 E500        R     MOV     A,i
0BC6 9400              SUBB    A,#00H
0BC8 4003              JC      $ + 5H
0BCA 020000      R     LJMP    ?C0142
                                           ; SOURCE LINE # 521
0BCD E500        R     MOV     A,i+01H
0BCF AE00        R     MOV     R6,i
0BD1 7803              MOV     R0,#03H
0BD3         ?C0290:
0BD3 C3                CLR     C
0BD4 33                RLC     A
0BD5 CE                XCH     A,R6
0BD6 33                RLC     A
0BD7 CE                XCH     A,R6
0BD8 D8F9              DJNZ    R0,?C0290
0BDA 2400        E     ADD     A,#LOW g_rx+03H
0BDC F582              MOV     DPL,A
0BDE 7400        E     MOV     A,#HIGH g_rx+03H
0BE0 3E                ADDC    A,R6
0BE1 F583              MOV     DPH,A
0BE3 E0                MOVX    A,@DPTR
0BE4 FC                MOV     R4,A
0BE5 A3                INC     DPTR
0BE6 E0                MOVX    A,@DPTR
0BE7 FD                MOV     R5,A
0BE8 A3                INC     DPTR
0BE9 E0                MOVX    A,@DPTR
0BEA FE                MOV     R6,A
0BEB A3                INC     DPTR
0BEC E0                MOVX    A,@DPTR
0BED FF                MOV     R7,A
C51 COMPILER V9.51   COMMAND_PROCESSING                                                    10/12/2016 17:30:47 PAGE 63  

0BEE C004              PUSH    AR4
0BF0 C005              PUSH    AR5
0BF2 C006              PUSH    AR6
0BF4 C007              PUSH    AR7
0BF6 E500        R     MOV     A,i+01H
0BF8 AE00        R     MOV     R6,i
0BFA 7802              MOV     R0,#02H
0BFC         ?C0291:
0BFC C3                CLR     C
0BFD 33                RLC     A
0BFE CE                XCH     A,R6
0BFF 33                RLC     A
0C00 CE                XCH     A,R6
0C01 D8F9              DJNZ    R0,?C0291
0C03 2400        E     ADD     A,#LOW g_mem+024H
0C05 F582              MOV     DPL,A
0C07 7400        E     MOV     A,#HIGH g_mem+024H
0C09 3E                ADDC    A,R6
0C0A F583              MOV     DPH,A
0C0C D007              POP     AR7
0C0E D006              POP     AR6
0C10 D005              POP     AR5
0C12 D004              POP     AR4
0C14 120000      E     LCALL   ?C?LSTXDATA
                                           ; SOURCE LINE # 522
0C17 E500        R     MOV     A,i+01H
0C19 AE00        R     MOV     R6,i
0C1B 7803              MOV     R0,#03H
0C1D         ?C0292:
0C1D C3                CLR     C
0C1E 33                RLC     A
0C1F CE                XCH     A,R6
0C20 33                RLC     A
0C21 CE                XCH     A,R6
0C22 D8F9              DJNZ    R0,?C0292
0C24 2400        E     ADD     A,#LOW g_rx+07H
0C26 F582              MOV     DPL,A
0C28 7400        E     MOV     A,#HIGH g_rx+07H
0C2A 3E                ADDC    A,R6
0C2B F583              MOV     DPH,A
0C2D E0                MOVX    A,@DPTR
0C2E FC                MOV     R4,A
0C2F A3                INC     DPTR
0C30 E0                MOVX    A,@DPTR
0C31 FD                MOV     R5,A
0C32 A3                INC     DPTR
0C33 E0                MOVX    A,@DPTR
0C34 FE                MOV     R6,A
0C35 A3                INC     DPTR
0C36 E0                MOVX    A,@DPTR
0C37 FF                MOV     R7,A
0C38 C004              PUSH    AR4
0C3A C005              PUSH    AR5
0C3C C006              PUSH    AR6
0C3E C007              PUSH    AR7
0C40 E500        R     MOV     A,i+01H
0C42 AE00        R     MOV     R6,i
0C44 7802              MOV     R0,#02H
0C46         ?C0293:
0C46 C3                CLR     C
0C47 33                RLC     A
0C48 CE                XCH     A,R6
C51 COMPILER V9.51   COMMAND_PROCESSING                                                    10/12/2016 17:30:47 PAGE 64  

0C49 33                RLC     A
0C4A CE                XCH     A,R6
0C4B D8F9              DJNZ    R0,?C0293
0C4D FB                MOV     R3,A
0C4E AA06              MOV     R2,AR6
0C50 2400        E     ADD     A,#LOW g_mem+02CH
0C52 F582              MOV     DPL,A
0C54 7400        E     MOV     A,#HIGH g_mem+02CH
0C56 3A                ADDC    A,R2
0C57 F583              MOV     DPH,A
0C59 D007              POP     AR7
0C5B D006              POP     AR6
0C5D D005              POP     AR5
0C5F D004              POP     AR4
0C61 120000      E     LCALL   ?C?LSTXDATA
                                           ; SOURCE LINE # 524
0C64 7400        E     MOV     A,#LOW g_mem+024H
0C66 2B                ADD     A,R3
0C67 F582              MOV     DPL,A
0C69 7400        E     MOV     A,#HIGH g_mem+024H
0C6B 3A                ADDC    A,R2
0C6C F583              MOV     DPH,A
0C6E C083              PUSH    DPH
0C70 C082              PUSH    DPL
0C72 E0                MOVX    A,@DPTR
0C73 FC                MOV     R4,A
0C74 A3                INC     DPTR
0C75 E0                MOVX    A,@DPTR
0C76 FD                MOV     R5,A
0C77 A3                INC     DPTR
0C78 E0                MOVX    A,@DPTR
0C79 FE                MOV     R6,A
0C7A A3                INC     DPTR
0C7B E0                MOVX    A,@DPTR
0C7C FF                MOV     R7,A
0C7D 7400        E     MOV     A,#LOW g_mem+011H
0C7F 2500        R     ADD     A,i+01H
0C81 F582              MOV     DPL,A
0C83 7400        E     MOV     A,#HIGH g_mem+011H
0C85 3500        R     ADDC    A,i
0C87 F583              MOV     DPH,A
0C89 E0                MOVX    A,@DPTR
0C8A F9                MOV     R1,A
0C8B F8                MOV     R0,A
0C8C 120000      E     LCALL   ?C?LSHL
0C8F D082              POP     DPL
0C91 D083              POP     DPH
0C93 120000      E     LCALL   ?C?LSTXDATA
                                           ; SOURCE LINE # 525
0C96 E500        R     MOV     A,i+01H
0C98 AE00        R     MOV     R6,i
0C9A 7802              MOV     R0,#02H
0C9C         ?C0294:
0C9C C3                CLR     C
0C9D 33                RLC     A
0C9E CE                XCH     A,R6
0C9F 33                RLC     A
0CA0 CE                XCH     A,R6
0CA1 D8F9              DJNZ    R0,?C0294
0CA3 2400        E     ADD     A,#LOW g_mem+02CH
0CA5 F582              MOV     DPL,A
0CA7 7400        E     MOV     A,#HIGH g_mem+02CH
C51 COMPILER V9.51   COMMAND_PROCESSING                                                    10/12/2016 17:30:47 PAGE 65  

0CA9 3E                ADDC    A,R6
0CAA F583              MOV     DPH,A
0CAC C083              PUSH    DPH
0CAE C082              PUSH    DPL
0CB0 E0                MOVX    A,@DPTR
0CB1 FC                MOV     R4,A
0CB2 A3                INC     DPTR
0CB3 E0                MOVX    A,@DPTR
0CB4 FD                MOV     R5,A
0CB5 A3                INC     DPTR
0CB6 E0                MOVX    A,@DPTR
0CB7 FE                MOV     R6,A
0CB8 A3                INC     DPTR
0CB9 E0                MOVX    A,@DPTR
0CBA FF                MOV     R7,A
0CBB 7400        E     MOV     A,#LOW g_mem+011H
0CBD 2500        R     ADD     A,i+01H
0CBF F582              MOV     DPL,A
0CC1 7400        E     MOV     A,#HIGH g_mem+011H
0CC3 3500        R     ADDC    A,i
0CC5 F583              MOV     DPH,A
0CC7 E0                MOVX    A,@DPTR
0CC8 F9                MOV     R1,A
0CC9 F8                MOV     R0,A
0CCA 120000      E     LCALL   ?C?LSHL
0CCD D082              POP     DPL
0CCF D083              POP     DPH
0CD1 120000      E     LCALL   ?C?LSTXDATA
                                           ; SOURCE LINE # 526
0CD4 0500        R     INC     i+01H
0CD6 E500        R     MOV     A,i+01H
0CD8 7002              JNZ     ?C0295
0CDA 0500        R     INC     i
0CDC         ?C0295:
0CDC 020000      R     LJMP    ?C0129
                                           ; SOURCE LINE # 527
                                           ; SOURCE LINE # 530
0CDF         ?C0132:
                                           ; SOURCE LINE # 531
0CDF 900000      E     MOV     DPTR,#g_rx+03H
0CE2 E0                MOVX    A,@DPTR
0CE3 FC                MOV     R4,A
0CE4 A3                INC     DPTR
0CE5 E0                MOVX    A,@DPTR
0CE6 FD                MOV     R5,A
0CE7 A3                INC     DPTR
0CE8 E0                MOVX    A,@DPTR
0CE9 FE                MOV     R6,A
0CEA A3                INC     DPTR
0CEB E0                MOVX    A,@DPTR
0CEC FF                MOV     R7,A
0CED 900000      R     MOV     DPTR,#aux_int
0CF0 120000      E     LCALL   ?C?LSTXDATA
                                           ; SOURCE LINE # 532
0CF3 E4                CLR     A
0CF4 FF                MOV     R7,A
0CF5 FE                MOV     R6,A
0CF6 FD                MOV     R5,A
0CF7 FC                MOV     R4,A
0CF8 900000      R     MOV     DPTR,#aux_int
0CFB E0                MOVX    A,@DPTR
0CFC F8                MOV     R0,A
C51 COMPILER V9.51   COMMAND_PROCESSING                                                    10/12/2016 17:30:47 PAGE 66  

0CFD A3                INC     DPTR
0CFE E0                MOVX    A,@DPTR
0CFF F9                MOV     R1,A
0D00 A3                INC     DPTR
0D01 E0                MOVX    A,@DPTR
0D02 FA                MOV     R2,A
0D03 A3                INC     DPTR
0D04 E0                MOVX    A,@DPTR
0D05 FB                MOV     R3,A
0D06 D3                SETB    C
0D07 120000      E     LCALL   ?C?SLCMP
0D0A 5014              JNC     ?C0133
                                           ; SOURCE LINE # 533
0D0C 900000      R     MOV     DPTR,#aux_int
0D0F E0                MOVX    A,@DPTR
0D10 FC                MOV     R4,A
0D11 A3                INC     DPTR
0D12 E0                MOVX    A,@DPTR
0D13 FD                MOV     R5,A
0D14 A3                INC     DPTR
0D15 E0                MOVX    A,@DPTR
0D16 FE                MOV     R6,A
0D17 A3                INC     DPTR
0D18 E0                MOVX    A,@DPTR
0D19 FF                MOV     R7,A
0D1A 900000      E     MOV     DPTR,#g_mem+038H
0D1D 120000      E     LCALL   ?C?LSTXDATA
0D20         ?C0133:
                                           ; SOURCE LINE # 535
0D20 900000      E     MOV     DPTR,#g_rx+07H
0D23 E0                MOVX    A,@DPTR
0D24 FC                MOV     R4,A
0D25 A3                INC     DPTR
0D26 E0                MOVX    A,@DPTR
0D27 FD                MOV     R5,A
0D28 A3                INC     DPTR
0D29 E0                MOVX    A,@DPTR
0D2A FE                MOV     R6,A
0D2B A3                INC     DPTR
0D2C E0                MOVX    A,@DPTR
0D2D FF                MOV     R7,A
0D2E 900000      R     MOV     DPTR,#aux_int
0D31 120000      E     LCALL   ?C?LSTXDATA
                                           ; SOURCE LINE # 536
0D34 E4                CLR     A
0D35 FF                MOV     R7,A
0D36 FE                MOV     R6,A
0D37 FD                MOV     R5,A
0D38 FC                MOV     R4,A
0D39 900000      R     MOV     DPTR,#aux_int
0D3C E0                MOVX    A,@DPTR
0D3D F8                MOV     R0,A
0D3E A3                INC     DPTR
0D3F E0                MOVX    A,@DPTR
0D40 F9                MOV     R1,A
0D41 A3                INC     DPTR
0D42 E0                MOVX    A,@DPTR
0D43 FA                MOV     R2,A
0D44 A3                INC     DPTR
0D45 E0                MOVX    A,@DPTR
0D46 FB                MOV     R3,A
0D47 C3                CLR     C
C51 COMPILER V9.51   COMMAND_PROCESSING                                                    10/12/2016 17:30:47 PAGE 67  

0D48 120000      E     LCALL   ?C?SLCMP
0D4B 5003              JNC     $ + 5H
0D4D 020000      R     LJMP    ?C0142
                                           ; SOURCE LINE # 537
0D50 900000      R     MOV     DPTR,#aux_int
0D53 E0                MOVX    A,@DPTR
0D54 FC                MOV     R4,A
0D55 A3                INC     DPTR
0D56 E0                MOVX    A,@DPTR
0D57 FD                MOV     R5,A
0D58 A3                INC     DPTR
0D59 E0                MOVX    A,@DPTR
0D5A FE                MOV     R6,A
0D5B A3                INC     DPTR
0D5C E0                MOVX    A,@DPTR
0D5D FF                MOV     R7,A
0D5E 900000      E     MOV     DPTR,#g_mem+03CH
0D61 120000      E     LCALL   ?C?LSTXDATA
                                           ; SOURCE LINE # 538
0D64 22                RET     
                                           ; SOURCE LINE # 541
0D65         ?C0135:
                                           ; SOURCE LINE # 542
0D65 900000      E     MOV     DPTR,#g_rx+03H
0D68 E0                MOVX    A,@DPTR
0D69 FF                MOV     R7,A
0D6A A3                INC     DPTR
0D6B E0                MOVX    A,@DPTR
0D6C 900000      E     MOV     DPTR,#g_mem+0EH
0D6F CF                XCH     A,R7
0D70 F0                MOVX    @DPTR,A
0D71 A3                INC     DPTR
0D72 EF                MOV     A,R7
0D73 F0                MOVX    @DPTR,A
                                           ; SOURCE LINE # 543
0D74 22                RET     
                                           ; SOURCE LINE # 546
0D75         ?C0136:
                                           ; SOURCE LINE # 547
0D75 900000      E     MOV     DPTR,#g_rx+03H
0D78 E0                MOVX    A,@DPTR
0D79 900000      E     MOV     DPTR,#g_mem+050H
0D7C F0                MOVX    @DPTR,A
                                           ; SOURCE LINE # 549
0D7D 604F              JZ      ?C0137
                                           ; SOURCE LINE # 550
0D7F 900000      E     MOV     DPTR,#g_ref+08H
0D82 7403              MOV     A,#03H
0D84 F0                MOVX    @DPTR,A
                                           ; SOURCE LINE # 551
0D85 FF                MOV     R7,A
0D86 120000      E     LCALL   _MOTOR_ON_OFF_Write
                                           ; SOURCE LINE # 552
0D89 900000      E     MOV     DPTR,#c_mem+011H
0D8C E0                MOVX    A,@DPTR
0D8D FF                MOV     R7,A
0D8E 741C              MOV     A,#01CH
0D90 7EF7              MOV     R6,#0F7H
0D92 A807              MOV     R0,AR7
0D94 08                INC     R0
0D95 8005              SJMP    ?C0297
0D97         ?C0296:
C51 COMPILER V9.51   COMMAND_PROCESSING                                                    10/12/2016 17:30:47 PAGE 68  

0D97 C3                CLR     C
0D98 33                RLC     A
0D99 CE                XCH     A,R6
0D9A 33                RLC     A
0D9B CE                XCH     A,R6
0D9C         ?C0297:
0D9C D8F9              DJNZ    R0,?C0296
0D9E FF                MOV     R7,A
0D9F EE                MOV     A,R6
0DA0 33                RLC     A
0DA1 95E0              SUBB    A,ACC
0DA3 FD                MOV     R5,A
0DA4 FC                MOV     R4,A
0DA5 900000      E     MOV     DPTR,#g_ref
0DA8 120000      E     LCALL   ?C?LSTXDATA
                                           ; SOURCE LINE # 553
0DAB 900000      E     MOV     DPTR,#c_mem+012H
0DAE E0                MOVX    A,@DPTR
0DAF FF                MOV     R7,A
0DB0 74E4              MOV     A,#0E4H
0DB2 7E08              MOV     R6,#08H
0DB4 A807              MOV     R0,AR7
0DB6 08                INC     R0
0DB7 8005              SJMP    ?C0299
0DB9         ?C0298:
0DB9 C3                CLR     C
0DBA 33                RLC     A
0DBB CE                XCH     A,R6
0DBC 33                RLC     A
0DBD CE                XCH     A,R6
0DBE         ?C0299:
0DBE D8F9              DJNZ    R0,?C0298
0DC0 FF                MOV     R7,A
0DC1 EE                MOV     A,R6
0DC2 33                RLC     A
0DC3 95E0              SUBB    A,ACC
0DC5 FD                MOV     R5,A
0DC6 FC                MOV     R4,A
0DC7 900000      E     MOV     DPTR,#g_ref+04H
0DCA 120000      E     LCALL   ?C?LSTXDATA
                                           ; SOURCE LINE # 554
0DCD 22                RET     
0DCE         ?C0137:
                                           ; SOURCE LINE # 555
0DCE 900000      E     MOV     DPTR,#c_mem+011H
0DD1 E0                MOVX    A,@DPTR
0DD2 FF                MOV     R7,A
0DD3 E4                CLR     A
0DD4 FE                MOV     R6,A
0DD5 A807              MOV     R0,AR7
0DD7 08                INC     R0
0DD8 8005              SJMP    ?C0301
0DDA         ?C0300:
0DDA C3                CLR     C
0DDB 33                RLC     A
0DDC CE                XCH     A,R6
0DDD 33                RLC     A
0DDE CE                XCH     A,R6
0DDF         ?C0301:
0DDF D8F9              DJNZ    R0,?C0300
0DE1 FF                MOV     R7,A
0DE2 EE                MOV     A,R6
C51 COMPILER V9.51   COMMAND_PROCESSING                                                    10/12/2016 17:30:47 PAGE 69  

0DE3 33                RLC     A
0DE4 95E0              SUBB    A,ACC
0DE6 FD                MOV     R5,A
0DE7 FC                MOV     R4,A
0DE8 900000      E     MOV     DPTR,#g_ref
0DEB 120000      E     LCALL   ?C?LSTXDATA
                                           ; SOURCE LINE # 556
0DEE 900000      E     MOV     DPTR,#c_mem+012H
0DF1 E0                MOVX    A,@DPTR
0DF2 FF                MOV     R7,A
0DF3 E4                CLR     A
0DF4 FE                MOV     R6,A
0DF5 A807              MOV     R0,AR7
0DF7 08                INC     R0
0DF8 8005              SJMP    ?C0303
0DFA         ?C0302:
0DFA C3                CLR     C
0DFB 33                RLC     A
0DFC CE                XCH     A,R6
0DFD 33                RLC     A
0DFE CE                XCH     A,R6
0DFF         ?C0303:
0DFF D8F9              DJNZ    R0,?C0302
0E01 FF                MOV     R7,A
0E02 EE                MOV     A,R6
0E03 33                RLC     A
0E04 95E0              SUBB    A,ACC
0E06 FD                MOV     R5,A
0E07 FC                MOV     R4,A
0E08 900000      E     MOV     DPTR,#g_ref+04H
0E0B 120000      E     LCALL   ?C?LSTXDATA
                                           ; SOURCE LINE # 557
0E0E E4                CLR     A
0E0F 900000      E     MOV     DPTR,#g_ref+08H
0E12 F0                MOVX    @DPTR,A
                                           ; SOURCE LINE # 558
0E13 FF                MOV     R7,A
0E14 120000      E     LCALL   _MOTOR_ON_OFF_Write
                                           ; SOURCE LINE # 559
                                           ; SOURCE LINE # 560
0E17 22                RET     
                                           ; SOURCE LINE # 563
0E18         ?C0139:
                                           ; SOURCE LINE # 564
0E18 900000      E     MOV     DPTR,#g_rx+03H
0E1B E0                MOVX    A,@DPTR
0E1C FC                MOV     R4,A
0E1D A3                INC     DPTR
0E1E E0                MOVX    A,@DPTR
0E1F FD                MOV     R5,A
0E20 A3                INC     DPTR
0E21 E0                MOVX    A,@DPTR
0E22 FE                MOV     R6,A
0E23 A3                INC     DPTR
0E24 E0                MOVX    A,@DPTR
0E25 FF                MOV     R7,A
0E26 900000      E     MOV     DPTR,#g_mem+044H
0E29 120000      E     LCALL   ?C?LSTXDATA
                                           ; SOURCE LINE # 565
0E2C 900000      E     MOV     DPTR,#g_rx+07H
0E2F E0                MOVX    A,@DPTR
0E30 FC                MOV     R4,A
C51 COMPILER V9.51   COMMAND_PROCESSING                                                    10/12/2016 17:30:47 PAGE 70  

0E31 A3                INC     DPTR
0E32 E0                MOVX    A,@DPTR
0E33 FD                MOV     R5,A
0E34 A3                INC     DPTR
0E35 E0                MOVX    A,@DPTR
0E36 FE                MOV     R6,A
0E37 A3                INC     DPTR
0E38 E0                MOVX    A,@DPTR
0E39 FF                MOV     R7,A
0E3A 900000      E     MOV     DPTR,#g_mem+048H
0E3D 120000      E     LCALL   ?C?LSTXDATA
                                           ; SOURCE LINE # 566
0E40 22                RET     
                                           ; SOURCE LINE # 569
0E41         ?C0140:
                                           ; SOURCE LINE # 570
0E41 900000      E     MOV     DPTR,#g_rx+03H
0E44 E0                MOVX    A,@DPTR
0E45 FC                MOV     R4,A
0E46 A3                INC     DPTR
0E47 E0                MOVX    A,@DPTR
0E48 FD                MOV     R5,A
0E49 A3                INC     DPTR
0E4A E0                MOVX    A,@DPTR
0E4B FE                MOV     R6,A
0E4C A3                INC     DPTR
0E4D E0                MOVX    A,@DPTR
0E4E FF                MOV     R7,A
0E4F 900000      E     MOV     DPTR,#g_mem+055H
0E52 120000      E     LCALL   ?C?LSTXDATA
                                           ; SOURCE LINE # 571
0E55 22                RET     
                                           ; SOURCE LINE # 574
0E56         ?C0141:
                                           ; SOURCE LINE # 575
0E56 900000      E     MOV     DPTR,#g_rx+03H
0E59 E0                MOVX    A,@DPTR
0E5A FF                MOV     R7,A
0E5B A3                INC     DPTR
0E5C E0                MOVX    A,@DPTR
0E5D 900000      E     MOV     DPTR,#g_mem+059H
0E60 CF                XCH     A,R7
0E61 F0                MOVX    @DPTR,A
0E62 A3                INC     DPTR
0E63 EF                MOV     A,R7
0E64 F0                MOVX    @DPTR,A
                                           ; SOURCE LINE # 576
                                           ; SOURCE LINE # 577
                                           ; SOURCE LINE # 578
0E65         ?C0142:
0E65 22                RET     
             ; FUNCTION _get_param_list (END)

             ; FUNCTION _infoPrepare (BEGIN)
                                           ; SOURCE LINE # 584
0000 900000      R     MOV     DPTR,#info_string
0003 EB                MOV     A,R3
0004 F0                MOVX    @DPTR,A
0005 A3                INC     DPTR
0006 EA                MOV     A,R2
0007 F0                MOVX    @DPTR,A
0008 A3                INC     DPTR
C51 COMPILER V9.51   COMMAND_PROCESSING                                                    10/12/2016 17:30:47 PAGE 71  

0009 E9                MOV     A,R1
000A F0                MOVX    @DPTR,A
                                           ; SOURCE LINE # 585
                                           ; SOURCE LINE # 590
000B 900000      R     MOV     DPTR,#info_string
000E E0                MOVX    A,@DPTR
000F FB                MOV     R3,A
0010 A3                INC     DPTR
0011 E0                MOVX    A,@DPTR
0012 FA                MOV     R2,A
0013 A3                INC     DPTR
0014 E0                MOVX    A,@DPTR
0015 F8                MOV     R0,A
0016 AC02              MOV     R4,AR2
0018 AD03              MOV     R5,AR3
001A 7BFF              MOV     R3,#0FFH
001C 7A00        R     MOV     R2,#HIGH ?SC_11
001E 7900        R     MOV     R1,#LOW ?SC_11
0020 120000      E     LCALL   ?C?STRCPYAMD
                                           ; SOURCE LINE # 591
0023 900000      E     MOV     DPTR,#?_strcat?BYTE+03H
0026 74FF              MOV     A,#0FFH
0028 F0                MOVX    @DPTR,A
0029 A3                INC     DPTR
002A 7400        R     MOV     A,#HIGH ?SC_12
002C F0                MOVX    @DPTR,A
002D A3                INC     DPTR
002E 7400        R     MOV     A,#LOW ?SC_12
0030 F0                MOVX    @DPTR,A
0031 900000      R     MOV     DPTR,#info_string
0034 E0                MOVX    A,@DPTR
0035 FB                MOV     R3,A
0036 A3                INC     DPTR
0037 E0                MOVX    A,@DPTR
0038 FA                MOV     R2,A
0039 A3                INC     DPTR
003A E0                MOVX    A,@DPTR
003B F9                MOV     R1,A
003C 120000      E     LCALL   _strcat
                                           ; SOURCE LINE # 592
003F 900000      E     MOV     DPTR,#?_strcat?BYTE+03H
0042 74FF              MOV     A,#0FFH
0044 F0                MOVX    @DPTR,A
0045 A3                INC     DPTR
0046 7400        R     MOV     A,#HIGH ?SC_15
0048 F0                MOVX    @DPTR,A
0049 A3                INC     DPTR
004A 7400        R     MOV     A,#LOW ?SC_15
004C F0                MOVX    @DPTR,A
004D 900000      R     MOV     DPTR,#info_string
0050 E0                MOVX    A,@DPTR
0051 FB                MOV     R3,A
0052 A3                INC     DPTR
0053 E0                MOVX    A,@DPTR
0054 FA                MOV     R2,A
0055 A3                INC     DPTR
0056 E0                MOVX    A,@DPTR
0057 F9                MOV     R1,A
0058 120000      E     LCALL   _strcat
                                           ; SOURCE LINE # 593
005B 900000      E     MOV     DPTR,#?_strcat?BYTE+03H
005E 74FF              MOV     A,#0FFH
C51 COMPILER V9.51   COMMAND_PROCESSING                                                    10/12/2016 17:30:47 PAGE 72  

0060 F0                MOVX    @DPTR,A
0061 A3                INC     DPTR
0062 7400        R     MOV     A,#HIGH ?SC_34
0064 F0                MOVX    @DPTR,A
0065 A3                INC     DPTR
0066 7400        R     MOV     A,#LOW ?SC_34
0068 F0                MOVX    @DPTR,A
0069 900000      R     MOV     DPTR,#info_string
006C E0                MOVX    A,@DPTR
006D FB                MOV     R3,A
006E A3                INC     DPTR
006F E0                MOVX    A,@DPTR
0070 FA                MOV     R2,A
0071 A3                INC     DPTR
0072 E0                MOVX    A,@DPTR
0073 F9                MOV     R1,A
0074 120000      E     LCALL   _strcat
                                           ; SOURCE LINE # 594
0077 900000      E     MOV     DPTR,#?_strcat?BYTE+03H
007A 74FF              MOV     A,#0FFH
007C F0                MOVX    @DPTR,A
007D A3                INC     DPTR
007E 7400        R     MOV     A,#HIGH ?SC_51
0080 F0                MOVX    @DPTR,A
0081 A3                INC     DPTR
0082 7400        R     MOV     A,#LOW ?SC_51
0084 F0                MOVX    @DPTR,A
0085 900000      R     MOV     DPTR,#info_string
0088 E0                MOVX    A,@DPTR
0089 FB                MOV     R3,A
008A A3                INC     DPTR
008B E0                MOVX    A,@DPTR
008C FA                MOV     R2,A
008D A3                INC     DPTR
008E E0                MOVX    A,@DPTR
008F F9                MOV     R1,A
0090 120000      E     LCALL   _strcat
                                           ; SOURCE LINE # 596
0093 900000      E     MOV     DPTR,#?_strcat?BYTE+03H
0096 74FF              MOV     A,#0FFH
0098 F0                MOVX    @DPTR,A
0099 A3                INC     DPTR
009A 7400        R     MOV     A,#HIGH ?SC_57
009C F0                MOVX    @DPTR,A
009D A3                INC     DPTR
009E 7400        R     MOV     A,#LOW ?SC_57
00A0 F0                MOVX    @DPTR,A
00A1 900000      R     MOV     DPTR,#info_string
00A4 E0                MOVX    A,@DPTR
00A5 FB                MOV     R3,A
00A6 A3                INC     DPTR
00A7 E0                MOVX    A,@DPTR
00A8 FA                MOV     R2,A
00A9 A3                INC     DPTR
00AA E0                MOVX    A,@DPTR
00AB F9                MOV     R1,A
00AC 120000      E     LCALL   _strcat
                                           ; SOURCE LINE # 597
00AF 900000      E     MOV     DPTR,#?_sprintf?BYTE+03H
00B2 74FF              MOV     A,#0FFH
00B4 F0                MOVX    @DPTR,A
00B5 A3                INC     DPTR
C51 COMPILER V9.51   COMMAND_PROCESSING                                                    10/12/2016 17:30:47 PAGE 73  

00B6 7400        R     MOV     A,#HIGH ?SC_71
00B8 F0                MOVX    @DPTR,A
00B9 A3                INC     DPTR
00BA 7400        R     MOV     A,#LOW ?SC_71
00BC F0                MOVX    @DPTR,A
00BD 900000      E     MOV     DPTR,#c_mem+01H
00C0 E0                MOVX    A,@DPTR
00C1 FF                MOV     R7,A
00C2 900000      E     MOV     DPTR,#?_sprintf?BYTE+06H
00C5 E4                CLR     A
00C6 F0                MOVX    @DPTR,A
00C7 A3                INC     DPTR
00C8 EF                MOV     A,R7
00C9 F0                MOVX    @DPTR,A
00CA 7B01              MOV     R3,#01H
00CC 7A00        R     MOV     R2,#HIGH str
00CE 7900        R     MOV     R1,#LOW str
00D0 120000      E     LCALL   _sprintf
                                           ; SOURCE LINE # 598
00D3 900000      E     MOV     DPTR,#?_strcat?BYTE+03H
00D6 7401              MOV     A,#01H
00D8 F0                MOVX    @DPTR,A
00D9 A3                INC     DPTR
00DA 7400        R     MOV     A,#HIGH str
00DC F0                MOVX    @DPTR,A
00DD A3                INC     DPTR
00DE 7400        R     MOV     A,#LOW str
00E0 F0                MOVX    @DPTR,A
00E1 900000      R     MOV     DPTR,#info_string
00E4 E0                MOVX    A,@DPTR
00E5 FB                MOV     R3,A
00E6 A3                INC     DPTR
00E7 E0                MOVX    A,@DPTR
00E8 FA                MOV     R2,A
00E9 A3                INC     DPTR
00EA E0                MOVX    A,@DPTR
00EB F9                MOV     R1,A
00EC 120000      E     LCALL   _strcat
                                           ; SOURCE LINE # 599
00EF 900000      E     MOV     DPTR,#?_sprintf?BYTE+03H
00F2 74FF              MOV     A,#0FFH
00F4 F0                MOVX    @DPTR,A
00F5 A3                INC     DPTR
00F6 7400        R     MOV     A,#HIGH ?SC_80
00F8 F0                MOVX    @DPTR,A
00F9 A3                INC     DPTR
00FA 7400        R     MOV     A,#LOW ?SC_80
00FC F0                MOVX    @DPTR,A
00FD A3                INC     DPTR
00FE E4                CLR     A
00FF F0                MOVX    @DPTR,A
0100 A3                INC     DPTR
0101 7402              MOV     A,#02H
0103 F0                MOVX    @DPTR,A
0104 7B01              MOV     R3,#01H
0106 7A00        R     MOV     R2,#HIGH str
0108 7900        R     MOV     R1,#LOW str
010A 120000      E     LCALL   _sprintf
                                           ; SOURCE LINE # 600
010D 900000      E     MOV     DPTR,#?_strcat?BYTE+03H
0110 7401              MOV     A,#01H
0112 F0                MOVX    @DPTR,A
C51 COMPILER V9.51   COMMAND_PROCESSING                                                    10/12/2016 17:30:47 PAGE 74  

0113 A3                INC     DPTR
0114 7400        R     MOV     A,#HIGH str
0116 F0                MOVX    @DPTR,A
0117 A3                INC     DPTR
0118 7400        R     MOV     A,#LOW str
011A F0                MOVX    @DPTR,A
011B 900000      R     MOV     DPTR,#info_string
011E E0                MOVX    A,@DPTR
011F FB                MOV     R3,A
0120 A3                INC     DPTR
0121 E0                MOVX    A,@DPTR
0122 FA                MOV     R2,A
0123 A3                INC     DPTR
0124 E0                MOVX    A,@DPTR
0125 F9                MOV     R1,A
0126 120000      E     LCALL   _strcat
                                           ; SOURCE LINE # 601
0129 900000      E     MOV     DPTR,#?_sprintf?BYTE+03H
012C 74FF              MOV     A,#0FFH
012E F0                MOVX    @DPTR,A
012F A3                INC     DPTR
0130 7400        R     MOV     A,#HIGH ?SC_104
0132 F0                MOVX    @DPTR,A
0133 A3                INC     DPTR
0134 7400        R     MOV     A,#LOW ?SC_104
0136 F0                MOVX    @DPTR,A
0137 900000      E     MOV     DPTR,#c_mem+059H
013A E0                MOVX    A,@DPTR
013B FF                MOV     R7,A
013C A3                INC     DPTR
013D E0                MOVX    A,@DPTR
013E 900000      E     MOV     DPTR,#?_sprintf?BYTE+06H
0141 CF                XCH     A,R7
0142 F0                MOVX    @DPTR,A
0143 A3                INC     DPTR
0144 EF                MOV     A,R7
0145 F0                MOVX    @DPTR,A
0146 7B01              MOV     R3,#01H
0148 7A00        R     MOV     R2,#HIGH str
014A 7900        R     MOV     R1,#LOW str
014C 120000      E     LCALL   _sprintf
                                           ; SOURCE LINE # 602
014F 900000      E     MOV     DPTR,#?_strcat?BYTE+03H
0152 7401              MOV     A,#01H
0154 F0                MOVX    @DPTR,A
0155 A3                INC     DPTR
0156 7400        R     MOV     A,#HIGH str
0158 F0                MOVX    @DPTR,A
0159 A3                INC     DPTR
015A 7400        R     MOV     A,#LOW str
015C F0                MOVX    @DPTR,A
015D 900000      R     MOV     DPTR,#info_string
0160 E0                MOVX    A,@DPTR
0161 FB                MOV     R3,A
0162 A3                INC     DPTR
0163 E0                MOVX    A,@DPTR
0164 FA                MOV     R2,A
0165 A3                INC     DPTR
0166 E0                MOVX    A,@DPTR
0167 F9                MOV     R1,A
0168 120000      E     LCALL   _strcat
                                           ; SOURCE LINE # 603
C51 COMPILER V9.51   COMMAND_PROCESSING                                                    10/12/2016 17:30:47 PAGE 75  

016B 900000      E     MOV     DPTR,#?_sprintf?BYTE+03H
016E 74FF              MOV     A,#0FFH
0170 F0                MOVX    @DPTR,A
0171 A3                INC     DPTR
0172 7400        R     MOV     A,#HIGH ?SC_125
0174 F0                MOVX    @DPTR,A
0175 A3                INC     DPTR
0176 7400        R     MOV     A,#LOW ?SC_125
0178 F0                MOVX    @DPTR,A
0179 900000      E     MOV     DPTR,#dev_pwm_limit
017C E0                MOVX    A,@DPTR
017D FF                MOV     R7,A
017E 900000      E     MOV     DPTR,#?_sprintf?BYTE+06H
0181 E4                CLR     A
0182 F0                MOVX    @DPTR,A
0183 A3                INC     DPTR
0184 EF                MOV     A,R7
0185 F0                MOVX    @DPTR,A
0186 7B01              MOV     R3,#01H
0188 7A00        R     MOV     R2,#HIGH str
018A 7900        R     MOV     R1,#LOW str
018C 120000      E     LCALL   _sprintf
                                           ; SOURCE LINE # 604
018F 900000      E     MOV     DPTR,#?_strcat?BYTE+03H
0192 7401              MOV     A,#01H
0194 F0                MOVX    @DPTR,A
0195 A3                INC     DPTR
0196 7400        R     MOV     A,#HIGH str
0198 F0                MOVX    @DPTR,A
0199 A3                INC     DPTR
019A 7400        R     MOV     A,#LOW str
019C F0                MOVX    @DPTR,A
019D 900000      R     MOV     DPTR,#info_string
01A0 E0                MOVX    A,@DPTR
01A1 FB                MOV     R3,A
01A2 A3                INC     DPTR
01A3 E0                MOVX    A,@DPTR
01A4 FA                MOV     R2,A
01A5 A3                INC     DPTR
01A6 E0                MOVX    A,@DPTR
01A7 F9                MOV     R1,A
01A8 120000      E     LCALL   _strcat
                                           ; SOURCE LINE # 605
01AB 900000      E     MOV     DPTR,#?_strcat?BYTE+03H
01AE 74FF              MOV     A,#0FFH
01B0 F0                MOVX    @DPTR,A
01B1 A3                INC     DPTR
01B2 7400        R     MOV     A,#HIGH ?SC_12
01B4 F0                MOVX    @DPTR,A
01B5 A3                INC     DPTR
01B6 7400        R     MOV     A,#LOW ?SC_12
01B8 F0                MOVX    @DPTR,A
01B9 900000      R     MOV     DPTR,#info_string
01BC E0                MOVX    A,@DPTR
01BD FB                MOV     R3,A
01BE A3                INC     DPTR
01BF E0                MOVX    A,@DPTR
01C0 FA                MOV     R2,A
01C1 A3                INC     DPTR
01C2 E0                MOVX    A,@DPTR
01C3 F9                MOV     R1,A
01C4 120000      E     LCALL   _strcat
C51 COMPILER V9.51   COMMAND_PROCESSING                                                    10/12/2016 17:30:47 PAGE 76  

                                           ; SOURCE LINE # 607
01C7 900000      E     MOV     DPTR,#?_strcat?BYTE+03H
01CA 74FF              MOV     A,#0FFH
01CC F0                MOVX    @DPTR,A
01CD A3                INC     DPTR
01CE 7400        R     MOV     A,#HIGH ?SC_141
01D0 F0                MOVX    @DPTR,A
01D1 A3                INC     DPTR
01D2 7400        R     MOV     A,#LOW ?SC_141
01D4 F0                MOVX    @DPTR,A
01D5 900000      R     MOV     DPTR,#info_string
01D8 E0                MOVX    A,@DPTR
01D9 FB                MOV     R3,A
01DA A3                INC     DPTR
01DB E0                MOVX    A,@DPTR
01DC FA                MOV     R2,A
01DD A3                INC     DPTR
01DE E0                MOVX    A,@DPTR
01DF F9                MOV     R1,A
01E0 120000      E     LCALL   _strcat
                                           ; SOURCE LINE # 608
01E3 900000      E     MOV     DPTR,#?_strcat?BYTE+03H
01E6 74FF              MOV     A,#0FFH
01E8 F0                MOVX    @DPTR,A
01E9 A3                INC     DPTR
01EA 7400        R     MOV     A,#HIGH ?SC_154
01EC F0                MOVX    @DPTR,A
01ED A3                INC     DPTR
01EE 7400        R     MOV     A,#LOW ?SC_154
01F0 F0                MOVX    @DPTR,A
01F1 900000      R     MOV     DPTR,#info_string
01F4 E0                MOVX    A,@DPTR
01F5 FB                MOV     R3,A
01F6 A3                INC     DPTR
01F7 E0                MOVX    A,@DPTR
01F8 FA                MOV     R2,A
01F9 A3                INC     DPTR
01FA E0                MOVX    A,@DPTR
01FB F9                MOV     R1,A
01FC 120000      E     LCALL   _strcat
                                           ; SOURCE LINE # 610
01FF E4                CLR     A
0200 F500        R     MOV     i,A
0202 F500        R     MOV     i+01H,A
0204         ?C0143:
0204 C3                CLR     C
0205 E500        R     MOV     A,i+01H
0207 9402              SUBB    A,#02H
0209 E500        R     MOV     A,i
020B 6480              XRL     A,#080H
020D 9480              SUBB    A,#080H
020F 5079              JNC     ?C0144
                                           ; SOURCE LINE # 611
0211 900000      E     MOV     DPTR,#?_sprintf?BYTE+03H
0214 74FF              MOV     A,#0FFH
0216 F0                MOVX    @DPTR,A
0217 A3                INC     DPTR
0218 7400        R     MOV     A,#HIGH ?SC_173
021A F0                MOVX    @DPTR,A
021B A3                INC     DPTR
021C 7400        R     MOV     A,#LOW ?SC_173
021E F0                MOVX    @DPTR,A
C51 COMPILER V9.51   COMMAND_PROCESSING                                                    10/12/2016 17:30:47 PAGE 77  

021F E500        R     MOV     A,i+01H
0221 AE00        R     MOV     R6,i
0223 7802              MOV     R0,#02H
0225         ?C0304:
0225 C3                CLR     C
0226 33                RLC     A
0227 CE                XCH     A,R6
0228 33                RLC     A
0229 CE                XCH     A,R6
022A D8F9              DJNZ    R0,?C0304
022C 2400        E     ADD     A,#LOW g_refOld
022E F582              MOV     DPL,A
0230 7400        E     MOV     A,#HIGH g_refOld
0232 3E                ADDC    A,R6
0233 F583              MOV     DPH,A
0235 E0                MOVX    A,@DPTR
0236 FC                MOV     R4,A
0237 A3                INC     DPTR
0238 E0                MOVX    A,@DPTR
0239 FD                MOV     R5,A
023A A3                INC     DPTR
023B E0                MOVX    A,@DPTR
023C FE                MOV     R6,A
023D A3                INC     DPTR
023E E0                MOVX    A,@DPTR
023F FF                MOV     R7,A
0240 7400        E     MOV     A,#LOW c_mem+011H
0242 2500        R     ADD     A,i+01H
0244 F582              MOV     DPL,A
0246 7400        E     MOV     A,#HIGH c_mem+011H
0248 3500        R     ADDC    A,i
024A F583              MOV     DPH,A
024C E0                MOVX    A,@DPTR
024D F9                MOV     R1,A
024E F8                MOV     R0,A
024F 120000      E     LCALL   ?C?SLSHR
0252 900000      E     MOV     DPTR,#?_sprintf?BYTE+06H
0255 EE                MOV     A,R6
0256 F0                MOVX    @DPTR,A
0257 A3                INC     DPTR
0258 EF                MOV     A,R7
0259 F0                MOVX    @DPTR,A
025A 7B01              MOV     R3,#01H
025C 7A00        R     MOV     R2,#HIGH str
025E 7900        R     MOV     R1,#LOW str
0260 120000      E     LCALL   _sprintf
                                           ; SOURCE LINE # 612
0263 900000      E     MOV     DPTR,#?_strcat?BYTE+03H
0266 7401              MOV     A,#01H
0268 F0                MOVX    @DPTR,A
0269 A3                INC     DPTR
026A 7400        R     MOV     A,#HIGH str
026C F0                MOVX    @DPTR,A
026D A3                INC     DPTR
026E 7400        R     MOV     A,#LOW str
0270 F0                MOVX    @DPTR,A
0271 900000      R     MOV     DPTR,#info_string
0274 E0                MOVX    A,@DPTR
0275 FB                MOV     R3,A
0276 A3                INC     DPTR
0277 E0                MOVX    A,@DPTR
0278 FA                MOV     R2,A
C51 COMPILER V9.51   COMMAND_PROCESSING                                                    10/12/2016 17:30:47 PAGE 78  

0279 A3                INC     DPTR
027A E0                MOVX    A,@DPTR
027B F9                MOV     R1,A
027C 120000      E     LCALL   _strcat
                                           ; SOURCE LINE # 613
027F 0500        R     INC     i+01H
0281 E500        R     MOV     A,i+01H
0283 7002              JNZ     ?C0305
0285 0500        R     INC     i
0287         ?C0305:
0287 020000      R     LJMP    ?C0143
028A         ?C0144:
                                           ; SOURCE LINE # 614
028A 900000      E     MOV     DPTR,#?_strcat?BYTE+03H
028D 74FF              MOV     A,#0FFH
028F F0                MOVX    @DPTR,A
0290 A3                INC     DPTR
0291 7400        R     MOV     A,#HIGH ?SC_12
0293 F0                MOVX    @DPTR,A
0294 A3                INC     DPTR
0295 7400        R     MOV     A,#LOW ?SC_12
0297 F0                MOVX    @DPTR,A
0298 900000      R     MOV     DPTR,#info_string
029B E0                MOVX    A,@DPTR
029C FB                MOV     R3,A
029D A3                INC     DPTR
029E E0                MOVX    A,@DPTR
029F FA                MOV     R2,A
02A0 A3                INC     DPTR
02A1 E0                MOVX    A,@DPTR
02A2 F9                MOV     R1,A
02A3 120000      E     LCALL   _strcat
                                           ; SOURCE LINE # 616
02A6 900000      E     MOV     DPTR,#?_sprintf?BYTE+03H
02A9 74FF              MOV     A,#0FFH
02AB F0                MOVX    @DPTR,A
02AC A3                INC     DPTR
02AD 7400        R     MOV     A,#HIGH ?SC_177
02AF F0                MOVX    @DPTR,A
02B0 A3                INC     DPTR
02B1 7400        R     MOV     A,#LOW ?SC_177
02B3 F0                MOVX    @DPTR,A
02B4 7B01              MOV     R3,#01H
02B6 7A00        R     MOV     R2,#HIGH str
02B8 7900        R     MOV     R1,#LOW str
02BA 120000      E     LCALL   _sprintf
                                           ; SOURCE LINE # 618
02BD 900000      E     MOV     DPTR,#g_refOld+08H
02C0 E0                MOVX    A,@DPTR
02C1 5403              ANL     A,#03H
02C3 6019              JZ      ?C0146
                                           ; SOURCE LINE # 619
02C5 900000      E     MOV     DPTR,#?_strcat?BYTE+03H
02C8 74FF              MOV     A,#0FFH
02CA F0                MOVX    @DPTR,A
02CB A3                INC     DPTR
02CC 7400        R     MOV     A,#HIGH ?SC_193
02CE F0                MOVX    @DPTR,A
02CF A3                INC     DPTR
02D0 7400        R     MOV     A,#LOW ?SC_193
02D2 F0                MOVX    @DPTR,A
02D3 7B01              MOV     R3,#01H
C51 COMPILER V9.51   COMMAND_PROCESSING                                                    10/12/2016 17:30:47 PAGE 79  

02D5 7A00        R     MOV     R2,#HIGH str
02D7 7900        R     MOV     R1,#LOW str
02D9 120000      E     LCALL   _strcat
                                           ; SOURCE LINE # 620
02DC 8017              SJMP    ?C0147
02DE         ?C0146:
                                           ; SOURCE LINE # 621
02DE 900000      E     MOV     DPTR,#?_strcat?BYTE+03H
02E1 74FF              MOV     A,#0FFH
02E3 F0                MOVX    @DPTR,A
02E4 A3                INC     DPTR
02E5 7400        R     MOV     A,#HIGH ?SC_199
02E7 F0                MOVX    @DPTR,A
02E8 A3                INC     DPTR
02E9 7400        R     MOV     A,#LOW ?SC_199
02EB F0                MOVX    @DPTR,A
02EC 7B01              MOV     R3,#01H
02EE 7A00        R     MOV     R2,#HIGH str
02F0 7900        R     MOV     R1,#LOW str
02F2 120000      E     LCALL   _strcat
                                           ; SOURCE LINE # 622
02F5         ?C0147:
                                           ; SOURCE LINE # 623
02F5 900000      E     MOV     DPTR,#?_strcat?BYTE+03H
02F8 7401              MOV     A,#01H
02FA F0                MOVX    @DPTR,A
02FB A3                INC     DPTR
02FC 7400        R     MOV     A,#HIGH str
02FE F0                MOVX    @DPTR,A
02FF A3                INC     DPTR
0300 7400        R     MOV     A,#LOW str
0302 F0                MOVX    @DPTR,A
0303 900000      R     MOV     DPTR,#info_string
0306 E0                MOVX    A,@DPTR
0307 FB                MOV     R3,A
0308 A3                INC     DPTR
0309 E0                MOVX    A,@DPTR
030A FA                MOV     R2,A
030B A3                INC     DPTR
030C E0                MOVX    A,@DPTR
030D F9                MOV     R1,A
030E 120000      E     LCALL   _strcat
                                           ; SOURCE LINE # 626
0311 900000      E     MOV     DPTR,#?_strcat?BYTE+03H
0314 74FF              MOV     A,#0FFH
0316 F0                MOVX    @DPTR,A
0317 A3                INC     DPTR
0318 7400        R     MOV     A,#HIGH ?SC_204
031A F0                MOVX    @DPTR,A
031B A3                INC     DPTR
031C 7400        R     MOV     A,#LOW ?SC_204
031E F0                MOVX    @DPTR,A
031F 900000      R     MOV     DPTR,#info_string
0322 E0                MOVX    A,@DPTR
0323 FB                MOV     R3,A
0324 A3                INC     DPTR
0325 E0                MOVX    A,@DPTR
0326 FA                MOV     R2,A
0327 A3                INC     DPTR
0328 E0                MOVX    A,@DPTR
0329 F9                MOV     R1,A
032A 120000      E     LCALL   _strcat
C51 COMPILER V9.51   COMMAND_PROCESSING                                                    10/12/2016 17:30:47 PAGE 80  

                                           ; SOURCE LINE # 627
032D 900000      E     MOV     DPTR,#?_strcat?BYTE+03H
0330 74FF              MOV     A,#0FFH
0332 F0                MOVX    @DPTR,A
0333 A3                INC     DPTR
0334 7400        R     MOV     A,#HIGH ?SC_226
0336 F0                MOVX    @DPTR,A
0337 A3                INC     DPTR
0338 7400        R     MOV     A,#LOW ?SC_226
033A F0                MOVX    @DPTR,A
033B 900000      R     MOV     DPTR,#info_string
033E E0                MOVX    A,@DPTR
033F FB                MOV     R3,A
0340 A3                INC     DPTR
0341 E0                MOVX    A,@DPTR
0342 FA                MOV     R2,A
0343 A3                INC     DPTR
0344 E0                MOVX    A,@DPTR
0345 F9                MOV     R1,A
0346 120000      E     LCALL   _strcat
                                           ; SOURCE LINE # 628
0349 E4                CLR     A
034A F500        R     MOV     i,A
034C F500        R     MOV     i+01H,A
034E         ?C0148:
034E C3                CLR     C
034F E500        R     MOV     A,i+01H
0351 9402              SUBB    A,#02H
0353 E500        R     MOV     A,i
0355 6480              XRL     A,#080H
0357 9480              SUBB    A,#080H
0359 4003              JC      $ + 5H
035B 020000      R     LJMP    ?C0149
                                           ; SOURCE LINE # 630
035E 900000      E     MOV     DPTR,#?_sprintf?BYTE+03H
0361 74FF              MOV     A,#0FFH
0363 F0                MOVX    @DPTR,A
0364 A3                INC     DPTR
0365 7400        R     MOV     A,#HIGH ?SC_242
0367 F0                MOVX    @DPTR,A
0368 A3                INC     DPTR
0369 7400        R     MOV     A,#LOW ?SC_242
036B F0                MOVX    @DPTR,A
036C E500        R     MOV     A,i+01H
036E 2401              ADD     A,#01H
0370 900000      E     MOV     DPTR,#?_sprintf?BYTE+07H
0373 F0                MOVX    @DPTR,A
0374 E4                CLR     A
0375 3500        R     ADDC    A,i
0377 900000      E     MOV     DPTR,#?_sprintf?BYTE+06H
037A F0                MOVX    @DPTR,A
037B E500        R     MOV     A,i+01H
037D AE00        R     MOV     R6,i
037F 7802              MOV     R0,#02H
0381         ?C0306:
0381 C3                CLR     C
0382 33                RLC     A
0383 CE                XCH     A,R6
0384 33                RLC     A
0385 CE                XCH     A,R6
0386 D8F9              DJNZ    R0,?C0306
0388 2400        E     ADD     A,#LOW g_measOld
C51 COMPILER V9.51   COMMAND_PROCESSING                                                    10/12/2016 17:30:47 PAGE 81  

038A F582              MOV     DPL,A
038C 7400        E     MOV     A,#HIGH g_measOld
038E 3E                ADDC    A,R6
038F F583              MOV     DPH,A
0391 E0                MOVX    A,@DPTR
0392 FC                MOV     R4,A
0393 A3                INC     DPTR
0394 E0                MOVX    A,@DPTR
0395 FD                MOV     R5,A
0396 A3                INC     DPTR
0397 E0                MOVX    A,@DPTR
0398 FE                MOV     R6,A
0399 A3                INC     DPTR
039A E0                MOVX    A,@DPTR
039B FF                MOV     R7,A
039C 7400        E     MOV     A,#LOW c_mem+011H
039E 2500        R     ADD     A,i+01H
03A0 F582              MOV     DPL,A
03A2 7400        E     MOV     A,#HIGH c_mem+011H
03A4 3500        R     ADDC    A,i
03A6 F583              MOV     DPH,A
03A8 E0                MOVX    A,@DPTR
03A9 F9                MOV     R1,A
03AA F8                MOV     R0,A
03AB 120000      E     LCALL   ?C?SLSHR
03AE 900000      E     MOV     DPTR,#?_sprintf?BYTE+08H
03B1 EE                MOV     A,R6
03B2 F0                MOVX    @DPTR,A
03B3 A3                INC     DPTR
03B4 EF                MOV     A,R7
03B5 F0                MOVX    @DPTR,A
03B6 7B01              MOV     R3,#01H
03B8 7A00        R     MOV     R2,#HIGH str
03BA 7900        R     MOV     R1,#LOW str
03BC 120000      E     LCALL   _sprintf
                                           ; SOURCE LINE # 631
03BF 900000      E     MOV     DPTR,#?_strcat?BYTE+03H
03C2 7401              MOV     A,#01H
03C4 F0                MOVX    @DPTR,A
03C5 A3                INC     DPTR
03C6 7400        R     MOV     A,#HIGH str
03C8 F0                MOVX    @DPTR,A
03C9 A3                INC     DPTR
03CA 7400        R     MOV     A,#LOW str
03CC F0                MOVX    @DPTR,A
03CD 900000      R     MOV     DPTR,#info_string
03D0 E0                MOVX    A,@DPTR
03D1 FB                MOV     R3,A
03D2 A3                INC     DPTR
03D3 E0                MOVX    A,@DPTR
03D4 FA                MOV     R2,A
03D5 A3                INC     DPTR
03D6 E0                MOVX    A,@DPTR
03D7 F9                MOV     R1,A
03D8 120000      E     LCALL   _strcat
                                           ; SOURCE LINE # 632
03DB 900000      E     MOV     DPTR,#?_strcat?BYTE+03H
03DE 74FF              MOV     A,#0FFH
03E0 F0                MOVX    @DPTR,A
03E1 A3                INC     DPTR
03E2 7400        R     MOV     A,#HIGH ?SC_12
03E4 F0                MOVX    @DPTR,A
C51 COMPILER V9.51   COMMAND_PROCESSING                                                    10/12/2016 17:30:47 PAGE 82  

03E5 A3                INC     DPTR
03E6 7400        R     MOV     A,#LOW ?SC_12
03E8 F0                MOVX    @DPTR,A
03E9 900000      R     MOV     DPTR,#info_string
03EC E0                MOVX    A,@DPTR
03ED FB                MOV     R3,A
03EE A3                INC     DPTR
03EF E0                MOVX    A,@DPTR
03F0 FA                MOV     R2,A
03F1 A3                INC     DPTR
03F2 E0                MOVX    A,@DPTR
03F3 F9                MOV     R1,A
03F4 120000      E     LCALL   _strcat
                                           ; SOURCE LINE # 633
03F7 0500        R     INC     i+01H
03F9 E500        R     MOV     A,i+01H
03FB 7002              JNZ     ?C0307
03FD 0500        R     INC     i
03FF         ?C0307:
03FF 020000      R     LJMP    ?C0148
0402         ?C0149:
                                           ; SOURCE LINE # 634
0402 900000      E     MOV     DPTR,#?_sprintf?BYTE+03H
0405 74FF              MOV     A,#0FFH
0407 F0                MOVX    @DPTR,A
0408 A3                INC     DPTR
0409 7400        R     MOV     A,#HIGH ?SC_251
040B F0                MOVX    @DPTR,A
040C A3                INC     DPTR
040D 7400        R     MOV     A,#LOW ?SC_251
040F F0                MOVX    @DPTR,A
0410 900000      E     MOV     DPTR,#dev_tension
0413 E0                MOVX    A,@DPTR
0414 FC                MOV     R4,A
0415 A3                INC     DPTR
0416 E0                MOVX    A,@DPTR
0417 FD                MOV     R5,A
0418 A3                INC     DPTR
0419 E0                MOVX    A,@DPTR
041A FE                MOV     R6,A
041B A3                INC     DPTR
041C E0                MOVX    A,@DPTR
041D FF                MOV     R7,A
041E 900000      E     MOV     DPTR,#?_sprintf?BYTE+06H
0421 120000      E     LCALL   ?C?LSTXDATA
0424 7B01              MOV     R3,#01H
0426 7A00        R     MOV     R2,#HIGH str
0428 7900        R     MOV     R1,#LOW str
042A 120000      E     LCALL   _sprintf
                                           ; SOURCE LINE # 635
042D 900000      E     MOV     DPTR,#?_strcat?BYTE+03H
0430 7401              MOV     A,#01H
0432 F0                MOVX    @DPTR,A
0433 A3                INC     DPTR
0434 7400        R     MOV     A,#HIGH str
0436 F0                MOVX    @DPTR,A
0437 A3                INC     DPTR
0438 7400        R     MOV     A,#LOW str
043A F0                MOVX    @DPTR,A
043B 900000      R     MOV     DPTR,#info_string
043E E0                MOVX    A,@DPTR
043F FB                MOV     R3,A
C51 COMPILER V9.51   COMMAND_PROCESSING                                                    10/12/2016 17:30:47 PAGE 83  

0440 A3                INC     DPTR
0441 E0                MOVX    A,@DPTR
0442 FA                MOV     R2,A
0443 A3                INC     DPTR
0444 E0                MOVX    A,@DPTR
0445 F9                MOV     R1,A
0446 120000      E     LCALL   _strcat
                                           ; SOURCE LINE # 636
0449 900000      E     MOV     DPTR,#?_strcat?BYTE+03H
044C 74FF              MOV     A,#0FFH
044E F0                MOVX    @DPTR,A
044F A3                INC     DPTR
0450 7400        R     MOV     A,#HIGH ?SC_12
0452 F0                MOVX    @DPTR,A
0453 A3                INC     DPTR
0454 7400        R     MOV     A,#LOW ?SC_12
0456 F0                MOVX    @DPTR,A
0457 900000      R     MOV     DPTR,#info_string
045A E0                MOVX    A,@DPTR
045B FB                MOV     R3,A
045C A3                INC     DPTR
045D E0                MOVX    A,@DPTR
045E FA                MOV     R2,A
045F A3                INC     DPTR
0460 E0                MOVX    A,@DPTR
0461 F9                MOV     R1,A
0462 120000      E     LCALL   _strcat
                                           ; SOURCE LINE # 638
0465 900000      E     MOV     DPTR,#?_sprintf?BYTE+03H
0468 74FF              MOV     A,#0FFH
046A F0                MOVX    @DPTR,A
046B A3                INC     DPTR
046C 7400        R     MOV     A,#HIGH ?SC_269
046E F0                MOVX    @DPTR,A
046F A3                INC     DPTR
0470 7400        R     MOV     A,#LOW ?SC_269
0472 F0                MOVX    @DPTR,A
0473 900000      E     MOV     DPTR,#g_measOld+08H
0476 E0                MOVX    A,@DPTR
0477 FE                MOV     R6,A
0478 A3                INC     DPTR
0479 E0                MOVX    A,@DPTR
047A FF                MOV     R7,A
047B EE                MOV     A,R6
047C 33                RLC     A
047D 95E0              SUBB    A,ACC
047F FD                MOV     R5,A
0480 FC                MOV     R4,A
0481 900000      E     MOV     DPTR,#?_sprintf?BYTE+06H
0484 120000      E     LCALL   ?C?LSTXDATA
0487 7B01              MOV     R3,#01H
0489 7A00        R     MOV     R2,#HIGH str
048B 7900        R     MOV     R1,#LOW str
048D 120000      E     LCALL   _sprintf
                                           ; SOURCE LINE # 639
0490 900000      E     MOV     DPTR,#?_strcat?BYTE+03H
0493 7401              MOV     A,#01H
0495 F0                MOVX    @DPTR,A
0496 A3                INC     DPTR
0497 7400        R     MOV     A,#HIGH str
0499 F0                MOVX    @DPTR,A
049A A3                INC     DPTR
C51 COMPILER V9.51   COMMAND_PROCESSING                                                    10/12/2016 17:30:47 PAGE 84  

049B 7400        R     MOV     A,#LOW str
049D F0                MOVX    @DPTR,A
049E 900000      R     MOV     DPTR,#info_string
04A1 E0                MOVX    A,@DPTR
04A2 FB                MOV     R3,A
04A3 A3                INC     DPTR
04A4 E0                MOVX    A,@DPTR
04A5 FA                MOV     R2,A
04A6 A3                INC     DPTR
04A7 E0                MOVX    A,@DPTR
04A8 F9                MOV     R1,A
04A9 120000      E     LCALL   _strcat
                                           ; SOURCE LINE # 640
04AC 900000      E     MOV     DPTR,#?_strcat?BYTE+03H
04AF 74FF              MOV     A,#0FFH
04B1 F0                MOVX    @DPTR,A
04B2 A3                INC     DPTR
04B3 7400        R     MOV     A,#HIGH ?SC_12
04B5 F0                MOVX    @DPTR,A
04B6 A3                INC     DPTR
04B7 7400        R     MOV     A,#LOW ?SC_12
04B9 F0                MOVX    @DPTR,A
04BA 900000      R     MOV     DPTR,#info_string
04BD E0                MOVX    A,@DPTR
04BE FB                MOV     R3,A
04BF A3                INC     DPTR
04C0 E0                MOVX    A,@DPTR
04C1 FA                MOV     R2,A
04C2 A3                INC     DPTR
04C3 E0                MOVX    A,@DPTR
04C4 F9                MOV     R1,A
04C5 120000      E     LCALL   _strcat
                                           ; SOURCE LINE # 642
04C8 900000      E     MOV     DPTR,#?_sprintf?BYTE+03H
04CB 74FF              MOV     A,#0FFH
04CD F0                MOVX    @DPTR,A
04CE A3                INC     DPTR
04CF 7400        R     MOV     A,#HIGH ?SC_289
04D1 F0                MOVX    @DPTR,A
04D2 A3                INC     DPTR
04D3 7400        R     MOV     A,#LOW ?SC_289
04D5 F0                MOVX    @DPTR,A
04D6 900000      E     MOV     DPTR,#g_measOld+0AH
04D9 E0                MOVX    A,@DPTR
04DA FE                MOV     R6,A
04DB A3                INC     DPTR
04DC E0                MOVX    A,@DPTR
04DD FF                MOV     R7,A
04DE EE                MOV     A,R6
04DF 33                RLC     A
04E0 95E0              SUBB    A,ACC
04E2 FD                MOV     R5,A
04E3 FC                MOV     R4,A
04E4 900000      E     MOV     DPTR,#?_sprintf?BYTE+06H
04E7 120000      E     LCALL   ?C?LSTXDATA
04EA 7B01              MOV     R3,#01H
04EC 7A00        R     MOV     R2,#HIGH str
04EE 7900        R     MOV     R1,#LOW str
04F0 120000      E     LCALL   _sprintf
                                           ; SOURCE LINE # 643
04F3 900000      E     MOV     DPTR,#?_strcat?BYTE+03H
04F6 7401              MOV     A,#01H
C51 COMPILER V9.51   COMMAND_PROCESSING                                                    10/12/2016 17:30:47 PAGE 85  

04F8 F0                MOVX    @DPTR,A
04F9 A3                INC     DPTR
04FA 7400        R     MOV     A,#HIGH str
04FC F0                MOVX    @DPTR,A
04FD A3                INC     DPTR
04FE 7400        R     MOV     A,#LOW str
0500 F0                MOVX    @DPTR,A
0501 900000      R     MOV     DPTR,#info_string
0504 E0                MOVX    A,@DPTR
0505 FB                MOV     R3,A
0506 A3                INC     DPTR
0507 E0                MOVX    A,@DPTR
0508 FA                MOV     R2,A
0509 A3                INC     DPTR
050A E0                MOVX    A,@DPTR
050B F9                MOV     R1,A
050C 120000      E     LCALL   _strcat
                                           ; SOURCE LINE # 644
050F 900000      E     MOV     DPTR,#?_strcat?BYTE+03H
0512 74FF              MOV     A,#0FFH
0514 F0                MOVX    @DPTR,A
0515 A3                INC     DPTR
0516 7400        R     MOV     A,#HIGH ?SC_12
0518 F0                MOVX    @DPTR,A
0519 A3                INC     DPTR
051A 7400        R     MOV     A,#LOW ?SC_12
051C F0                MOVX    @DPTR,A
051D 900000      R     MOV     DPTR,#info_string
0520 E0                MOVX    A,@DPTR
0521 FB                MOV     R3,A
0522 A3                INC     DPTR
0523 E0                MOVX    A,@DPTR
0524 FA                MOV     R2,A
0525 A3                INC     DPTR
0526 E0                MOVX    A,@DPTR
0527 F9                MOV     R1,A
0528 120000      E     LCALL   _strcat
                                           ; SOURCE LINE # 647
052B 900000      E     MOV     DPTR,#?_strcat?BYTE+03H
052E 74FF              MOV     A,#0FFH
0530 F0                MOVX    @DPTR,A
0531 A3                INC     DPTR
0532 7400        R     MOV     A,#HIGH ?SC_309
0534 F0                MOVX    @DPTR,A
0535 A3                INC     DPTR
0536 7400        R     MOV     A,#LOW ?SC_309
0538 F0                MOVX    @DPTR,A
0539 900000      R     MOV     DPTR,#info_string
053C E0                MOVX    A,@DPTR
053D FB                MOV     R3,A
053E A3                INC     DPTR
053F E0                MOVX    A,@DPTR
0540 FA                MOV     R2,A
0541 A3                INC     DPTR
0542 E0                MOVX    A,@DPTR
0543 F9                MOV     R1,A
0544 120000      E     LCALL   _strcat
                                           ; SOURCE LINE # 649
0547 900000      E     MOV     DPTR,#?_strcat?BYTE+03H
054A 74FF              MOV     A,#0FFH
054C F0                MOVX    @DPTR,A
054D A3                INC     DPTR
C51 COMPILER V9.51   COMMAND_PROCESSING                                                    10/12/2016 17:30:47 PAGE 86  

054E 7400        R     MOV     A,#HIGH ?SC_331
0550 F0                MOVX    @DPTR,A
0551 A3                INC     DPTR
0552 7400        R     MOV     A,#LOW ?SC_331
0554 F0                MOVX    @DPTR,A
0555 900000      R     MOV     DPTR,#info_string
0558 E0                MOVX    A,@DPTR
0559 FB                MOV     R3,A
055A A3                INC     DPTR
055B E0                MOVX    A,@DPTR
055C FA                MOV     R2,A
055D A3                INC     DPTR
055E E0                MOVX    A,@DPTR
055F F9                MOV     R1,A
0560 120000      E     LCALL   _strcat
                                           ; SOURCE LINE # 650
0563 900000      E     MOV     DPTR,#?_sprintf?BYTE+03H
0566 74FF              MOV     A,#0FFH
0568 F0                MOVX    @DPTR,A
0569 A3                INC     DPTR
056A 7400        R     MOV     A,#HIGH ?SC_349
056C F0                MOVX    @DPTR,A
056D A3                INC     DPTR
056E 7400        R     MOV     A,#LOW ?SC_349
0570 F0                MOVX    @DPTR,A
0571 900000      E     MOV     DPTR,#c_mem+02H
0574 E0                MOVX    A,@DPTR
0575 FC                MOV     R4,A
0576 A3                INC     DPTR
0577 E0                MOVX    A,@DPTR
0578 FD                MOV     R5,A
0579 A3                INC     DPTR
057A E0                MOVX    A,@DPTR
057B FE                MOV     R6,A
057C A3                INC     DPTR
057D E0                MOVX    A,@DPTR
057E FF                MOV     R7,A
057F EC                MOV     A,R4
0580 120000      E     LCALL   ?C?FCASTL
0583 E4                CLR     A
0584 FB                MOV     R3,A
0585 FA                MOV     R2,A
0586 7980              MOV     R1,#080H
0588 7847              MOV     R0,#047H
058A 120000      E     LCALL   ?C?FPDIV
058D 900000      E     MOV     DPTR,#?_sprintf?BYTE+06H
0590 120000      E     LCALL   ?C?LSTXDATA
0593 7B01              MOV     R3,#01H
0595 7A00        R     MOV     R2,#HIGH str
0597 7900        R     MOV     R1,#LOW str
0599 120000      E     LCALL   _sprintf
                                           ; SOURCE LINE # 651
059C 900000      E     MOV     DPTR,#?_strcat?BYTE+03H
059F 7401              MOV     A,#01H
05A1 F0                MOVX    @DPTR,A
05A2 A3                INC     DPTR
05A3 7400        R     MOV     A,#HIGH str
05A5 F0                MOVX    @DPTR,A
05A6 A3                INC     DPTR
05A7 7400        R     MOV     A,#LOW str
05A9 F0                MOVX    @DPTR,A
05AA 900000      R     MOV     DPTR,#info_string
C51 COMPILER V9.51   COMMAND_PROCESSING                                                    10/12/2016 17:30:47 PAGE 87  

05AD E0                MOVX    A,@DPTR
05AE FB                MOV     R3,A
05AF A3                INC     DPTR
05B0 E0                MOVX    A,@DPTR
05B1 FA                MOV     R2,A
05B2 A3                INC     DPTR
05B3 E0                MOVX    A,@DPTR
05B4 F9                MOV     R1,A
05B5 120000      E     LCALL   _strcat
                                           ; SOURCE LINE # 652
05B8 900000      E     MOV     DPTR,#?_sprintf?BYTE+03H
05BB 74FF              MOV     A,#0FFH
05BD F0                MOVX    @DPTR,A
05BE A3                INC     DPTR
05BF 7400        R     MOV     A,#HIGH ?SC_359
05C1 F0                MOVX    @DPTR,A
05C2 A3                INC     DPTR
05C3 7400        R     MOV     A,#LOW ?SC_359
05C5 F0                MOVX    @DPTR,A
05C6 900000      E     MOV     DPTR,#c_mem+06H
05C9 E0                MOVX    A,@DPTR
05CA FC                MOV     R4,A
05CB A3                INC     DPTR
05CC E0                MOVX    A,@DPTR
05CD FD                MOV     R5,A
05CE A3                INC     DPTR
05CF E0                MOVX    A,@DPTR
05D0 FE                MOV     R6,A
05D1 A3                INC     DPTR
05D2 E0                MOVX    A,@DPTR
05D3 FF                MOV     R7,A
05D4 EC                MOV     A,R4
05D5 120000      E     LCALL   ?C?FCASTL
05D8 E4                CLR     A
05D9 FB                MOV     R3,A
05DA FA                MOV     R2,A
05DB 7980              MOV     R1,#080H
05DD 7847              MOV     R0,#047H
05DF 120000      E     LCALL   ?C?FPDIV
05E2 900000      E     MOV     DPTR,#?_sprintf?BYTE+06H
05E5 120000      E     LCALL   ?C?LSTXDATA
05E8 7B01              MOV     R3,#01H
05EA 7A00        R     MOV     R2,#HIGH str
05EC 7900        R     MOV     R1,#LOW str
05EE 120000      E     LCALL   _sprintf
                                           ; SOURCE LINE # 653
05F1 900000      E     MOV     DPTR,#?_strcat?BYTE+03H
05F4 7401              MOV     A,#01H
05F6 F0                MOVX    @DPTR,A
05F7 A3                INC     DPTR
05F8 7400        R     MOV     A,#HIGH str
05FA F0                MOVX    @DPTR,A
05FB A3                INC     DPTR
05FC 7400        R     MOV     A,#LOW str
05FE F0                MOVX    @DPTR,A
05FF 900000      R     MOV     DPTR,#info_string
0602 E0                MOVX    A,@DPTR
0603 FB                MOV     R3,A
0604 A3                INC     DPTR
0605 E0                MOVX    A,@DPTR
0606 FA                MOV     R2,A
0607 A3                INC     DPTR
C51 COMPILER V9.51   COMMAND_PROCESSING                                                    10/12/2016 17:30:47 PAGE 88  

0608 E0                MOVX    A,@DPTR
0609 F9                MOV     R1,A
060A 120000      E     LCALL   _strcat
                                           ; SOURCE LINE # 654
060D 900000      E     MOV     DPTR,#?_sprintf?BYTE+03H
0610 74FF              MOV     A,#0FFH
0612 F0                MOVX    @DPTR,A
0613 A3                INC     DPTR
0614 7400        R     MOV     A,#HIGH ?SC_369
0616 F0                MOVX    @DPTR,A
0617 A3                INC     DPTR
0618 7400        R     MOV     A,#LOW ?SC_369
061A F0                MOVX    @DPTR,A
061B 900000      E     MOV     DPTR,#c_mem+0AH
061E E0                MOVX    A,@DPTR
061F FC                MOV     R4,A
0620 A3                INC     DPTR
0621 E0                MOVX    A,@DPTR
0622 FD                MOV     R5,A
0623 A3                INC     DPTR
0624 E0                MOVX    A,@DPTR
0625 FE                MOV     R6,A
0626 A3                INC     DPTR
0627 E0                MOVX    A,@DPTR
0628 FF                MOV     R7,A
0629 EC                MOV     A,R4
062A 120000      E     LCALL   ?C?FCASTL
062D E4                CLR     A
062E FB                MOV     R3,A
062F FA                MOV     R2,A
0630 7980              MOV     R1,#080H
0632 7847              MOV     R0,#047H
0634 120000      E     LCALL   ?C?FPDIV
0637 900000      E     MOV     DPTR,#?_sprintf?BYTE+06H
063A 120000      E     LCALL   ?C?LSTXDATA
063D 7B01              MOV     R3,#01H
063F 7A00        R     MOV     R2,#HIGH str
0641 7900        R     MOV     R1,#LOW str
0643 120000      E     LCALL   _sprintf
                                           ; SOURCE LINE # 655
0646 900000      E     MOV     DPTR,#?_strcat?BYTE+03H
0649 7401              MOV     A,#01H
064B F0                MOVX    @DPTR,A
064C A3                INC     DPTR
064D 7400        R     MOV     A,#HIGH str
064F F0                MOVX    @DPTR,A
0650 A3                INC     DPTR
0651 7400        R     MOV     A,#LOW str
0653 F0                MOVX    @DPTR,A
0654 900000      R     MOV     DPTR,#info_string
0657 E0                MOVX    A,@DPTR
0658 FB                MOV     R3,A
0659 A3                INC     DPTR
065A E0                MOVX    A,@DPTR
065B FA                MOV     R2,A
065C A3                INC     DPTR
065D E0                MOVX    A,@DPTR
065E F9                MOV     R1,A
065F 120000      E     LCALL   _strcat
                                           ; SOURCE LINE # 657
0662 900000      E     MOV     DPTR,#?_strcat?BYTE+03H
0665 74FF              MOV     A,#0FFH
C51 COMPILER V9.51   COMMAND_PROCESSING                                                    10/12/2016 17:30:47 PAGE 89  

0667 F0                MOVX    @DPTR,A
0668 A3                INC     DPTR
0669 7400        R     MOV     A,#HIGH ?SC_12
066B F0                MOVX    @DPTR,A
066C A3                INC     DPTR
066D 7400        R     MOV     A,#LOW ?SC_12
066F F0                MOVX    @DPTR,A
0670 900000      R     MOV     DPTR,#info_string
0673 E0                MOVX    A,@DPTR
0674 FB                MOV     R3,A
0675 A3                INC     DPTR
0676 E0                MOVX    A,@DPTR
0677 FA                MOV     R2,A
0678 A3                INC     DPTR
0679 E0                MOVX    A,@DPTR
067A F9                MOV     R1,A
067B 120000      E     LCALL   _strcat
                                           ; SOURCE LINE # 659
067E 900000      E     MOV     DPTR,#c_mem+010H
0681 E0                MOVX    A,@DPTR
0682 B4031E            CJNE    A,#03H,?C0151
                                           ; SOURCE LINE # 660
0685 900000      E     MOV     DPTR,#?_strcat?BYTE+03H
0688 74FF              MOV     A,#0FFH
068A F0                MOVX    @DPTR,A
068B A3                INC     DPTR
068C 7400        R     MOV     A,#HIGH ?SC_379
068E F0                MOVX    @DPTR,A
068F A3                INC     DPTR
0690 7400        R     MOV     A,#LOW ?SC_379
0692 F0                MOVX    @DPTR,A
0693 900000      R     MOV     DPTR,#info_string
0696 E0                MOVX    A,@DPTR
0697 FB                MOV     R3,A
0698 A3                INC     DPTR
0699 E0                MOVX    A,@DPTR
069A FA                MOV     R2,A
069B A3                INC     DPTR
069C E0                MOVX    A,@DPTR
069D F9                MOV     R1,A
069E 120000      E     LCALL   _strcat
                                           ; SOURCE LINE # 661
06A1 801C              SJMP    ?C0152
06A3         ?C0151:
                                           ; SOURCE LINE # 662
06A3 900000      E     MOV     DPTR,#?_strcat?BYTE+03H
06A6 74FF              MOV     A,#0FFH
06A8 F0                MOVX    @DPTR,A
06A9 A3                INC     DPTR
06AA 7400        R     MOV     A,#HIGH ?SC_405
06AC F0                MOVX    @DPTR,A
06AD A3                INC     DPTR
06AE 7400        R     MOV     A,#LOW ?SC_405
06B0 F0                MOVX    @DPTR,A
06B1 900000      R     MOV     DPTR,#info_string
06B4 E0                MOVX    A,@DPTR
06B5 FB                MOV     R3,A
06B6 A3                INC     DPTR
06B7 E0                MOVX    A,@DPTR
06B8 FA                MOV     R2,A
06B9 A3                INC     DPTR
06BA E0                MOVX    A,@DPTR
C51 COMPILER V9.51   COMMAND_PROCESSING                                                    10/12/2016 17:30:47 PAGE 90  

06BB F9                MOV     R1,A
06BC 120000      E     LCALL   _strcat
                                           ; SOURCE LINE # 663
06BF         ?C0152:
                                           ; SOURCE LINE # 665
06BF 900000      E     MOV     DPTR,#?_strcat?BYTE+03H
06C2 74FF              MOV     A,#0FFH
06C4 F0                MOVX    @DPTR,A
06C5 A3                INC     DPTR
06C6 7400        R     MOV     A,#HIGH ?SC_430
06C8 F0                MOVX    @DPTR,A
06C9 A3                INC     DPTR
06CA 7400        R     MOV     A,#LOW ?SC_430
06CC F0                MOVX    @DPTR,A
06CD 900000      R     MOV     DPTR,#info_string
06D0 E0                MOVX    A,@DPTR
06D1 FB                MOV     R3,A
06D2 A3                INC     DPTR
06D3 E0                MOVX    A,@DPTR
06D4 FA                MOV     R2,A
06D5 A3                INC     DPTR
06D6 E0                MOVX    A,@DPTR
06D7 F9                MOV     R1,A
06D8 120000      E     LCALL   _strcat
                                           ; SOURCE LINE # 666
06DB E4                CLR     A
06DC F500        R     MOV     i,A
06DE F500        R     MOV     i+01H,A
06E0         ?C0153:
06E0 C3                CLR     C
06E1 E500        R     MOV     A,i+01H
06E3 9402              SUBB    A,#02H
06E5 E500        R     MOV     A,i
06E7 6480              XRL     A,#080H
06E9 9480              SUBB    A,#080H
06EB 507F              JNC     ?C0154
                                           ; SOURCE LINE # 667
                                           ; SOURCE LINE # 669
06ED 900000      E     MOV     DPTR,#?_sprintf?BYTE+03H
06F0 74FF              MOV     A,#0FFH
06F2 F0                MOVX    @DPTR,A
06F3 A3                INC     DPTR
06F4 7400        R     MOV     A,#HIGH ?SC_242
06F6 F0                MOVX    @DPTR,A
06F7 A3                INC     DPTR
06F8 7400        R     MOV     A,#LOW ?SC_242
06FA F0                MOVX    @DPTR,A
06FB E500        R     MOV     A,i+01H
06FD 2401              ADD     A,#01H
06FF 900000      E     MOV     DPTR,#?_sprintf?BYTE+07H
0702 F0                MOVX    @DPTR,A
0703 E4                CLR     A
0704 3500        R     ADDC    A,i
0706 900000      E     MOV     DPTR,#?_sprintf?BYTE+06H
0709 F0                MOVX    @DPTR,A
070A 7400        E     MOV     A,#LOW c_mem+011H
070C 2500        R     ADD     A,i+01H
070E F582              MOV     DPL,A
0710 7400        E     MOV     A,#HIGH c_mem+011H
0712 3500        R     ADDC    A,i
0714 F583              MOV     DPH,A
0716 E0                MOVX    A,@DPTR
C51 COMPILER V9.51   COMMAND_PROCESSING                                                    10/12/2016 17:30:47 PAGE 91  

0717 FF                MOV     R7,A
0718 900000      E     MOV     DPTR,#?_sprintf?BYTE+08H
071B E4                CLR     A
071C F0                MOVX    @DPTR,A
071D A3                INC     DPTR
071E EF                MOV     A,R7
071F F0                MOVX    @DPTR,A
0720 7B01              MOV     R3,#01H
0722 7A00        R     MOV     R2,#HIGH str
0724 7900        R     MOV     R1,#LOW str
0726 120000      E     LCALL   _sprintf
                                           ; SOURCE LINE # 670
0729 900000      E     MOV     DPTR,#?_strcat?BYTE+03H
072C 7401              MOV     A,#01H
072E F0                MOVX    @DPTR,A
072F A3                INC     DPTR
0730 7400        R     MOV     A,#HIGH str
0732 F0                MOVX    @DPTR,A
0733 A3                INC     DPTR
0734 7400        R     MOV     A,#LOW str
0736 F0                MOVX    @DPTR,A
0737 900000      R     MOV     DPTR,#info_string
073A E0                MOVX    A,@DPTR
073B FB                MOV     R3,A
073C A3                INC     DPTR
073D E0                MOVX    A,@DPTR
073E FA                MOV     R2,A
073F A3                INC     DPTR
0740 E0                MOVX    A,@DPTR
0741 F9                MOV     R1,A
0742 120000      E     LCALL   _strcat
                                           ; SOURCE LINE # 671
0745 900000      E     MOV     DPTR,#?_strcat?BYTE+03H
0748 74FF              MOV     A,#0FFH
074A F0                MOVX    @DPTR,A
074B A3                INC     DPTR
074C 7400        R     MOV     A,#HIGH ?SC_12
074E F0                MOVX    @DPTR,A
074F A3                INC     DPTR
0750 7400        R     MOV     A,#LOW ?SC_12
0752 F0                MOVX    @DPTR,A
0753 900000      R     MOV     DPTR,#info_string
0756 E0                MOVX    A,@DPTR
0757 FB                MOV     R3,A
0758 A3                INC     DPTR
0759 E0                MOVX    A,@DPTR
075A FA                MOV     R2,A
075B A3                INC     DPTR
075C E0                MOVX    A,@DPTR
075D F9                MOV     R1,A
075E 120000      E     LCALL   _strcat
                                           ; SOURCE LINE # 672
0761 0500        R     INC     i+01H
0763 E500        R     MOV     A,i+01H
0765 7002              JNZ     ?C0308
0767 0500        R     INC     i
0769         ?C0308:
0769 020000      R     LJMP    ?C0153
076C         ?C0154:
                                           ; SOURCE LINE # 675
076C 900000      E     MOV     DPTR,#?_strcat?BYTE+03H
076F 74FF              MOV     A,#0FFH
C51 COMPILER V9.51   COMMAND_PROCESSING                                                    10/12/2016 17:30:47 PAGE 92  

0771 F0                MOVX    @DPTR,A
0772 A3                INC     DPTR
0773 7400        R     MOV     A,#HIGH ?SC_451
0775 F0                MOVX    @DPTR,A
0776 A3                INC     DPTR
0777 7400        R     MOV     A,#LOW ?SC_451
0779 F0                MOVX    @DPTR,A
077A 900000      R     MOV     DPTR,#info_string
077D E0                MOVX    A,@DPTR
077E FB                MOV     R3,A
077F A3                INC     DPTR
0780 E0                MOVX    A,@DPTR
0781 FA                MOV     R2,A
0782 A3                INC     DPTR
0783 E0                MOVX    A,@DPTR
0784 F9                MOV     R1,A
0785 120000      E     LCALL   _strcat
                                           ; SOURCE LINE # 676
0788 E4                CLR     A
0789 F500        R     MOV     i,A
078B F500        R     MOV     i+01H,A
078D         ?C0156:
078D C3                CLR     C
078E E500        R     MOV     A,i+01H
0790 9402              SUBB    A,#02H
0792 E500        R     MOV     A,i
0794 6480              XRL     A,#080H
0796 9480              SUBB    A,#080H
0798 4003              JC      $ + 5H
079A 020000      R     LJMP    ?C0157
                                           ; SOURCE LINE # 677
                                           ; SOURCE LINE # 679
079D 900000      E     MOV     DPTR,#?_sprintf?BYTE+03H
07A0 74FF              MOV     A,#0FFH
07A2 F0                MOVX    @DPTR,A
07A3 A3                INC     DPTR
07A4 7400        R     MOV     A,#HIGH ?SC_473
07A6 F0                MOVX    @DPTR,A
07A7 A3                INC     DPTR
07A8 7400        R     MOV     A,#LOW ?SC_473
07AA F0                MOVX    @DPTR,A
07AB E500        R     MOV     A,i+01H
07AD 2401              ADD     A,#01H
07AF 900000      E     MOV     DPTR,#?_sprintf?BYTE+07H
07B2 F0                MOVX    @DPTR,A
07B3 E4                CLR     A
07B4 3500        R     ADDC    A,i
07B6 900000      E     MOV     DPTR,#?_sprintf?BYTE+06H
07B9 F0                MOVX    @DPTR,A
07BA E500        R     MOV     A,i+01H
07BC AE00        R     MOV     R6,i
07BE 7802              MOV     R0,#02H
07C0         ?C0309:
07C0 C3                CLR     C
07C1 33                RLC     A
07C2 CE                XCH     A,R6
07C3 33                RLC     A
07C4 CE                XCH     A,R6
07C5 D8F9              DJNZ    R0,?C0309
07C7 2400        E     ADD     A,#LOW c_mem+013H
07C9 F582              MOV     DPL,A
07CB 7400        E     MOV     A,#HIGH c_mem+013H
C51 COMPILER V9.51   COMMAND_PROCESSING                                                    10/12/2016 17:30:47 PAGE 93  

07CD 3E                ADDC    A,R6
07CE F583              MOV     DPH,A
07D0 E0                MOVX    A,@DPTR
07D1 FC                MOV     R4,A
07D2 A3                INC     DPTR
07D3 E0                MOVX    A,@DPTR
07D4 FD                MOV     R5,A
07D5 A3                INC     DPTR
07D6 E0                MOVX    A,@DPTR
07D7 FE                MOV     R6,A
07D8 A3                INC     DPTR
07D9 E0                MOVX    A,@DPTR
07DA FF                MOV     R7,A
07DB 7400        E     MOV     A,#LOW c_mem+011H
07DD 2500        R     ADD     A,i+01H
07DF F582              MOV     DPL,A
07E1 7400        E     MOV     A,#HIGH c_mem+011H
07E3 3500        R     ADDC    A,i
07E5 F583              MOV     DPH,A
07E7 E0                MOVX    A,@DPTR
07E8 F9                MOV     R1,A
07E9 F8                MOV     R0,A
07EA 120000      E     LCALL   ?C?SLSHR
07ED 900000      E     MOV     DPTR,#?_sprintf?BYTE+08H
07F0 120000      E     LCALL   ?C?LSTXDATA
07F3 7B01              MOV     R3,#01H
07F5 7A00        R     MOV     R2,#HIGH str
07F7 7900        R     MOV     R1,#LOW str
07F9 120000      E     LCALL   _sprintf
                                           ; SOURCE LINE # 680
07FC 900000      E     MOV     DPTR,#?_strcat?BYTE+03H
07FF 7401              MOV     A,#01H
0801 F0                MOVX    @DPTR,A
0802 A3                INC     DPTR
0803 7400        R     MOV     A,#HIGH str
0805 F0                MOVX    @DPTR,A
0806 A3                INC     DPTR
0807 7400        R     MOV     A,#LOW str
0809 F0                MOVX    @DPTR,A
080A 900000      R     MOV     DPTR,#info_string
080D E0                MOVX    A,@DPTR
080E FB                MOV     R3,A
080F A3                INC     DPTR
0810 E0                MOVX    A,@DPTR
0811 FA                MOV     R2,A
0812 A3                INC     DPTR
0813 E0                MOVX    A,@DPTR
0814 F9                MOV     R1,A
0815 120000      E     LCALL   _strcat
                                           ; SOURCE LINE # 681
0818 900000      E     MOV     DPTR,#?_strcat?BYTE+03H
081B 74FF              MOV     A,#0FFH
081D F0                MOVX    @DPTR,A
081E A3                INC     DPTR
081F 7400        R     MOV     A,#HIGH ?SC_12
0821 F0                MOVX    @DPTR,A
0822 A3                INC     DPTR
0823 7400        R     MOV     A,#LOW ?SC_12
0825 F0                MOVX    @DPTR,A
0826 900000      R     MOV     DPTR,#info_string
0829 E0                MOVX    A,@DPTR
082A FB                MOV     R3,A
C51 COMPILER V9.51   COMMAND_PROCESSING                                                    10/12/2016 17:30:47 PAGE 94  

082B A3                INC     DPTR
082C E0                MOVX    A,@DPTR
082D FA                MOV     R2,A
082E A3                INC     DPTR
082F E0                MOVX    A,@DPTR
0830 F9                MOV     R1,A
0831 120000      E     LCALL   _strcat
                                           ; SOURCE LINE # 682
0834 0500        R     INC     i+01H
0836 E500        R     MOV     A,i+01H
0838 7002              JNZ     ?C0310
083A 0500        R     INC     i
083C         ?C0310:
083C 020000      R     LJMP    ?C0156
083F         ?C0157:
                                           ; SOURCE LINE # 684
083F 900000      E     MOV     DPTR,#?_strcat?BYTE+03H
0842 74FF              MOV     A,#0FFH
0844 F0                MOVX    @DPTR,A
0845 A3                INC     DPTR
0846 7400        R     MOV     A,#HIGH ?SC_483
0848 F0                MOVX    @DPTR,A
0849 A3                INC     DPTR
084A 7400        R     MOV     A,#LOW ?SC_483
084C F0                MOVX    @DPTR,A
084D 900000      R     MOV     DPTR,#info_string
0850 E0                MOVX    A,@DPTR
0851 FB                MOV     R3,A
0852 A3                INC     DPTR
0853 E0                MOVX    A,@DPTR
0854 FA                MOV     R2,A
0855 A3                INC     DPTR
0856 E0                MOVX    A,@DPTR
0857 F9                MOV     R1,A
0858 120000      E     LCALL   _strcat
                                           ; SOURCE LINE # 685
085B E4                CLR     A
085C F500        R     MOV     i,A
085E F500        R     MOV     i+01H,A
0860         ?C0159:
0860 C3                CLR     C
0861 E500        R     MOV     A,i+01H
0863 9402              SUBB    A,#02H
0865 E500        R     MOV     A,i
0867 6480              XRL     A,#080H
0869 9480              SUBB    A,#080H
086B 4003              JC      $ + 5H
086D 020000      R     LJMP    ?C0160
                                           ; SOURCE LINE # 686
                                           ; SOURCE LINE # 688
0870 900000      E     MOV     DPTR,#?_sprintf?BYTE+03H
0873 74FF              MOV     A,#0FFH
0875 F0                MOVX    @DPTR,A
0876 A3                INC     DPTR
0877 7400        R     MOV     A,#HIGH ?SC_509
0879 F0                MOVX    @DPTR,A
087A A3                INC     DPTR
087B 7400        R     MOV     A,#LOW ?SC_509
087D F0                MOVX    @DPTR,A
087E E500        R     MOV     A,i+01H
0880 2401              ADD     A,#01H
0882 900000      E     MOV     DPTR,#?_sprintf?BYTE+07H
C51 COMPILER V9.51   COMMAND_PROCESSING                                                    10/12/2016 17:30:47 PAGE 95  

0885 F0                MOVX    @DPTR,A
0886 E4                CLR     A
0887 3500        R     ADDC    A,i
0889 900000      E     MOV     DPTR,#?_sprintf?BYTE+06H
088C F0                MOVX    @DPTR,A
088D E500        R     MOV     A,i+01H
088F AE00        R     MOV     R6,i
0891 7802              MOV     R0,#02H
0893         ?C0311:
0893 C3                CLR     C
0894 33                RLC     A
0895 CE                XCH     A,R6
0896 33                RLC     A
0897 CE                XCH     A,R6
0898 D8F9              DJNZ    R0,?C0311
089A 2400        E     ADD     A,#LOW c_mem+01BH
089C F582              MOV     DPL,A
089E 7400        E     MOV     A,#HIGH c_mem+01BH
08A0 3E                ADDC    A,R6
08A1 F583              MOV     DPH,A
08A3 E0                MOVX    A,@DPTR
08A4 FC                MOV     R4,A
08A5 A3                INC     DPTR
08A6 E0                MOVX    A,@DPTR
08A7 FD                MOV     R5,A
08A8 A3                INC     DPTR
08A9 E0                MOVX    A,@DPTR
08AA FE                MOV     R6,A
08AB A3                INC     DPTR
08AC E0                MOVX    A,@DPTR
08AD FF                MOV     R7,A
08AE 900000      E     MOV     DPTR,#?_sprintf?BYTE+08H
08B1 120000      E     LCALL   ?C?LSTXDATA
08B4 7B01              MOV     R3,#01H
08B6 7A00        R     MOV     R2,#HIGH str
08B8 7900        R     MOV     R1,#LOW str
08BA 120000      E     LCALL   _sprintf
                                           ; SOURCE LINE # 689
08BD 900000      E     MOV     DPTR,#?_strcat?BYTE+03H
08C0 7401              MOV     A,#01H
08C2 F0                MOVX    @DPTR,A
08C3 A3                INC     DPTR
08C4 7400        R     MOV     A,#HIGH str
08C6 F0                MOVX    @DPTR,A
08C7 A3                INC     DPTR
08C8 7400        R     MOV     A,#LOW str
08CA F0                MOVX    @DPTR,A
08CB 900000      R     MOV     DPTR,#info_string
08CE E0                MOVX    A,@DPTR
08CF FB                MOV     R3,A
08D0 A3                INC     DPTR
08D1 E0                MOVX    A,@DPTR
08D2 FA                MOV     R2,A
08D3 A3                INC     DPTR
08D4 E0                MOVX    A,@DPTR
08D5 F9                MOV     R1,A
08D6 120000      E     LCALL   _strcat
                                           ; SOURCE LINE # 690
08D9 900000      E     MOV     DPTR,#?_strcat?BYTE+03H
08DC 74FF              MOV     A,#0FFH
08DE F0                MOVX    @DPTR,A
08DF A3                INC     DPTR
C51 COMPILER V9.51   COMMAND_PROCESSING                                                    10/12/2016 17:30:47 PAGE 96  

08E0 7400        R     MOV     A,#HIGH ?SC_12
08E2 F0                MOVX    @DPTR,A
08E3 A3                INC     DPTR
08E4 7400        R     MOV     A,#LOW ?SC_12
08E6 F0                MOVX    @DPTR,A
08E7 900000      R     MOV     DPTR,#info_string
08EA E0                MOVX    A,@DPTR
08EB FB                MOV     R3,A
08EC A3                INC     DPTR
08ED E0                MOVX    A,@DPTR
08EE FA                MOV     R2,A
08EF A3                INC     DPTR
08F0 E0                MOVX    A,@DPTR
08F1 F9                MOV     R1,A
08F2 120000      E     LCALL   _strcat
                                           ; SOURCE LINE # 691
08F5 0500        R     INC     i+01H
08F7 E500        R     MOV     A,i+01H
08F9 7002              JNZ     ?C0312
08FB 0500        R     INC     i
08FD         ?C0312:
08FD 020000      R     LJMP    ?C0159
0900         ?C0160:
                                           ; SOURCE LINE # 693
0900 900000      E     MOV     DPTR,#?_sprintf?BYTE+03H
0903 74FF              MOV     A,#0FFH
0905 F0                MOVX    @DPTR,A
0906 A3                INC     DPTR
0907 7400        R     MOV     A,#HIGH ?SC_518
0909 F0                MOVX    @DPTR,A
090A A3                INC     DPTR
090B 7400        R     MOV     A,#LOW ?SC_518
090D F0                MOVX    @DPTR,A
090E 900000      E     MOV     DPTR,#g_mem+023H
0911 E0                MOVX    A,@DPTR
0912 FF                MOV     R7,A
0913 900000      E     MOV     DPTR,#?_sprintf?BYTE+06H
0916 E4                CLR     A
0917 F0                MOVX    @DPTR,A
0918 A3                INC     DPTR
0919 EF                MOV     A,R7
091A F0                MOVX    @DPTR,A
091B 7B01              MOV     R3,#01H
091D 7A00        R     MOV     R2,#HIGH str
091F 7900        R     MOV     R1,#LOW str
0921 120000      E     LCALL   _sprintf
                                           ; SOURCE LINE # 694
0924 900000      E     MOV     DPTR,#?_strcat?BYTE+03H
0927 7401              MOV     A,#01H
0929 F0                MOVX    @DPTR,A
092A A3                INC     DPTR
092B 7400        R     MOV     A,#HIGH str
092D F0                MOVX    @DPTR,A
092E A3                INC     DPTR
092F 7400        R     MOV     A,#LOW str
0931 F0                MOVX    @DPTR,A
0932 900000      R     MOV     DPTR,#info_string
0935 E0                MOVX    A,@DPTR
0936 FB                MOV     R3,A
0937 A3                INC     DPTR
0938 E0                MOVX    A,@DPTR
0939 FA                MOV     R2,A
C51 COMPILER V9.51   COMMAND_PROCESSING                                                    10/12/2016 17:30:47 PAGE 97  

093A A3                INC     DPTR
093B E0                MOVX    A,@DPTR
093C F9                MOV     R1,A
093D 120000      E     LCALL   _strcat
                                           ; SOURCE LINE # 695
0940 900000      E     MOV     DPTR,#?_strcat?BYTE+03H
0943 74FF              MOV     A,#0FFH
0945 F0                MOVX    @DPTR,A
0946 A3                INC     DPTR
0947 7400        R     MOV     A,#HIGH ?SC_12
0949 F0                MOVX    @DPTR,A
094A A3                INC     DPTR
094B 7400        R     MOV     A,#LOW ?SC_12
094D F0                MOVX    @DPTR,A
094E 900000      R     MOV     DPTR,#info_string
0951 E0                MOVX    A,@DPTR
0952 FB                MOV     R3,A
0953 A3                INC     DPTR
0954 E0                MOVX    A,@DPTR
0955 FA                MOV     R2,A
0956 A3                INC     DPTR
0957 E0                MOVX    A,@DPTR
0958 F9                MOV     R1,A
0959 120000      E     LCALL   _strcat
                                           ; SOURCE LINE # 697
095C E4                CLR     A
095D F500        R     MOV     i,A
095F F500        R     MOV     i+01H,A
0961         ?C0162:
0961 C3                CLR     C
0962 E500        R     MOV     A,i+01H
0964 9402              SUBB    A,#02H
0966 E500        R     MOV     A,i
0968 6480              XRL     A,#080H
096A 9480              SUBB    A,#080H
096C 4003              JC      $ + 5H
096E 020000      R     LJMP    ?C0163
                                           ; SOURCE LINE # 699
0971 900000      E     MOV     DPTR,#?_sprintf?BYTE+03H
0974 74FF              MOV     A,#0FFH
0976 F0                MOVX    @DPTR,A
0977 A3                INC     DPTR
0978 7400        R     MOV     A,#HIGH ?SC_544
097A F0                MOVX    @DPTR,A
097B A3                INC     DPTR
097C 7400        R     MOV     A,#LOW ?SC_544
097E F0                MOVX    @DPTR,A
097F E500        R     MOV     A,i+01H
0981 2401              ADD     A,#01H
0983 900000      E     MOV     DPTR,#?_sprintf?BYTE+07H
0986 F0                MOVX    @DPTR,A
0987 E4                CLR     A
0988 3500        R     ADDC    A,i
098A 900000      E     MOV     DPTR,#?_sprintf?BYTE+06H
098D F0                MOVX    @DPTR,A
098E E500        R     MOV     A,i+01H
0990 AE00        R     MOV     R6,i
0992 7802              MOV     R0,#02H
0994         ?C0313:
0994 C3                CLR     C
0995 33                RLC     A
0996 CE                XCH     A,R6
C51 COMPILER V9.51   COMMAND_PROCESSING                                                    10/12/2016 17:30:47 PAGE 98  

0997 33                RLC     A
0998 CE                XCH     A,R6
0999 D8F9              DJNZ    R0,?C0313
099B 2400        E     ADD     A,#LOW g_mem+024H
099D F582              MOV     DPL,A
099F 7400        E     MOV     A,#HIGH g_mem+024H
09A1 3E                ADDC    A,R6
09A2 F583              MOV     DPH,A
09A4 E0                MOVX    A,@DPTR
09A5 FC                MOV     R4,A
09A6 A3                INC     DPTR
09A7 E0                MOVX    A,@DPTR
09A8 FD                MOV     R5,A
09A9 A3                INC     DPTR
09AA E0                MOVX    A,@DPTR
09AB FE                MOV     R6,A
09AC A3                INC     DPTR
09AD E0                MOVX    A,@DPTR
09AE FF                MOV     R7,A
09AF 7400        E     MOV     A,#LOW g_mem+011H
09B1 2500        R     ADD     A,i+01H
09B3 F582              MOV     DPL,A
09B5 7400        E     MOV     A,#HIGH g_mem+011H
09B7 3500        R     ADDC    A,i
09B9 F583              MOV     DPH,A
09BB E0                MOVX    A,@DPTR
09BC F9                MOV     R1,A
09BD F8                MOV     R0,A
09BE 120000      E     LCALL   ?C?SLSHR
09C1 900000      E     MOV     DPTR,#?_sprintf?BYTE+08H
09C4 120000      E     LCALL   ?C?LSTXDATA
09C7 7B01              MOV     R3,#01H
09C9 7A00        R     MOV     R2,#HIGH str
09CB 7900        R     MOV     R1,#LOW str
09CD 120000      E     LCALL   _sprintf
                                           ; SOURCE LINE # 700
09D0 900000      E     MOV     DPTR,#?_strcat?BYTE+03H
09D3 7401              MOV     A,#01H
09D5 F0                MOVX    @DPTR,A
09D6 A3                INC     DPTR
09D7 7400        R     MOV     A,#HIGH str
09D9 F0                MOVX    @DPTR,A
09DA A3                INC     DPTR
09DB 7400        R     MOV     A,#LOW str
09DD F0                MOVX    @DPTR,A
09DE 900000      R     MOV     DPTR,#info_string
09E1 E0                MOVX    A,@DPTR
09E2 FB                MOV     R3,A
09E3 A3                INC     DPTR
09E4 E0                MOVX    A,@DPTR
09E5 FA                MOV     R2,A
09E6 A3                INC     DPTR
09E7 E0                MOVX    A,@DPTR
09E8 F9                MOV     R1,A
09E9 120000      E     LCALL   _strcat
                                           ; SOURCE LINE # 703
09EC 900000      E     MOV     DPTR,#?_sprintf?BYTE+03H
09EF 74FF              MOV     A,#0FFH
09F1 F0                MOVX    @DPTR,A
09F2 A3                INC     DPTR
09F3 7400        R     MOV     A,#HIGH ?SC_582
09F5 F0                MOVX    @DPTR,A
C51 COMPILER V9.51   COMMAND_PROCESSING                                                    10/12/2016 17:30:47 PAGE 99  

09F6 A3                INC     DPTR
09F7 7400        R     MOV     A,#LOW ?SC_582
09F9 F0                MOVX    @DPTR,A
09FA E500        R     MOV     A,i+01H
09FC AE00        R     MOV     R6,i
09FE 7802              MOV     R0,#02H
0A00         ?C0314:
0A00 C3                CLR     C
0A01 33                RLC     A
0A02 CE                XCH     A,R6
0A03 33                RLC     A
0A04 CE                XCH     A,R6
0A05 D8F9              DJNZ    R0,?C0314
0A07 2400        E     ADD     A,#LOW g_mem+02CH
0A09 F582              MOV     DPL,A
0A0B 7400        E     MOV     A,#HIGH g_mem+02CH
0A0D 3E                ADDC    A,R6
0A0E F583              MOV     DPH,A
0A10 E0                MOVX    A,@DPTR
0A11 FC                MOV     R4,A
0A12 A3                INC     DPTR
0A13 E0                MOVX    A,@DPTR
0A14 FD                MOV     R5,A
0A15 A3                INC     DPTR
0A16 E0                MOVX    A,@DPTR
0A17 FE                MOV     R6,A
0A18 A3                INC     DPTR
0A19 E0                MOVX    A,@DPTR
0A1A FF                MOV     R7,A
0A1B 7400        E     MOV     A,#LOW g_mem+011H
0A1D 2500        R     ADD     A,i+01H
0A1F F582              MOV     DPL,A
0A21 7400        E     MOV     A,#HIGH g_mem+011H
0A23 3500        R     ADDC    A,i
0A25 F583              MOV     DPH,A
0A27 E0                MOVX    A,@DPTR
0A28 F9                MOV     R1,A
0A29 F8                MOV     R0,A
0A2A 120000      E     LCALL   ?C?SLSHR
0A2D 900000      E     MOV     DPTR,#?_sprintf?BYTE+06H
0A30 120000      E     LCALL   ?C?LSTXDATA
0A33 7B01              MOV     R3,#01H
0A35 7A00        R     MOV     R2,#HIGH str
0A37 7900        R     MOV     R1,#LOW str
0A39 120000      E     LCALL   _sprintf
                                           ; SOURCE LINE # 704
0A3C 900000      E     MOV     DPTR,#?_strcat?BYTE+03H
0A3F 7401              MOV     A,#01H
0A41 F0                MOVX    @DPTR,A
0A42 A3                INC     DPTR
0A43 7400        R     MOV     A,#HIGH str
0A45 F0                MOVX    @DPTR,A
0A46 A3                INC     DPTR
0A47 7400        R     MOV     A,#LOW str
0A49 F0                MOVX    @DPTR,A
0A4A 900000      R     MOV     DPTR,#info_string
0A4D E0                MOVX    A,@DPTR
0A4E FB                MOV     R3,A
0A4F A3                INC     DPTR
0A50 E0                MOVX    A,@DPTR
0A51 FA                MOV     R2,A
0A52 A3                INC     DPTR
C51 COMPILER V9.51   COMMAND_PROCESSING                                                    10/12/2016 17:30:47 PAGE 100 

0A53 E0                MOVX    A,@DPTR
0A54 F9                MOV     R1,A
0A55 120000      E     LCALL   _strcat
                                           ; SOURCE LINE # 705
0A58 0500        R     INC     i+01H
0A5A E500        R     MOV     A,i+01H
0A5C 7002              JNZ     ?C0315
0A5E 0500        R     INC     i
0A60         ?C0315:
0A60 020000      R     LJMP    ?C0162
0A63         ?C0163:
                                           ; SOURCE LINE # 707
0A63 900000      E     MOV     DPTR,#?_sprintf?BYTE+03H
0A66 74FF              MOV     A,#0FFH
0A68 F0                MOVX    @DPTR,A
0A69 A3                INC     DPTR
0A6A 7400        R     MOV     A,#HIGH ?SC_595
0A6C F0                MOVX    @DPTR,A
0A6D A3                INC     DPTR
0A6E 7400        R     MOV     A,#LOW ?SC_595
0A70 F0                MOVX    @DPTR,A
0A71 900000      E     MOV     DPTR,#g_mem+034H
0A74 E0                MOVX    A,@DPTR
0A75 FE                MOV     R6,A
0A76 A3                INC     DPTR
0A77 E0                MOVX    A,@DPTR
0A78 FF                MOV     R7,A
0A79 900000      E     MOV     DPTR,#g_mem+011H
0A7C E0                MOVX    A,@DPTR
0A7D FD                MOV     R5,A
0A7E EF                MOV     A,R7
0A7F A805              MOV     R0,AR5
0A81 08                INC     R0
0A82 8006              SJMP    ?C0317
0A84         ?C0316:
0A84 CE                XCH     A,R6
0A85 A2E7              MOV     C,ACC.7
0A87 13                RRC     A
0A88 CE                XCH     A,R6
0A89 13                RRC     A
0A8A         ?C0317:
0A8A D8F8              DJNZ    R0,?C0316
0A8C FF                MOV     R7,A
0A8D 900000      E     MOV     DPTR,#?_sprintf?BYTE+06H
0A90 EE                MOV     A,R6
0A91 F0                MOVX    @DPTR,A
0A92 A3                INC     DPTR
0A93 EF                MOV     A,R7
0A94 F0                MOVX    @DPTR,A
0A95 7B01              MOV     R3,#01H
0A97 7A00        R     MOV     R2,#HIGH str
0A99 7900        R     MOV     R1,#LOW str
0A9B 120000      E     LCALL   _sprintf
                                           ; SOURCE LINE # 708
0A9E 900000      E     MOV     DPTR,#?_strcat?BYTE+03H
0AA1 7401              MOV     A,#01H
0AA3 F0                MOVX    @DPTR,A
0AA4 A3                INC     DPTR
0AA5 7400        R     MOV     A,#HIGH str
0AA7 F0                MOVX    @DPTR,A
0AA8 A3                INC     DPTR
0AA9 7400        R     MOV     A,#LOW str
C51 COMPILER V9.51   COMMAND_PROCESSING                                                    10/12/2016 17:30:47 PAGE 101 

0AAB F0                MOVX    @DPTR,A
0AAC 900000      R     MOV     DPTR,#info_string
0AAF E0                MOVX    A,@DPTR
0AB0 FB                MOV     R3,A
0AB1 A3                INC     DPTR
0AB2 E0                MOVX    A,@DPTR
0AB3 FA                MOV     R2,A
0AB4 A3                INC     DPTR
0AB5 E0                MOVX    A,@DPTR
0AB6 F9                MOV     R1,A
0AB7 120000      E     LCALL   _strcat
                                           ; SOURCE LINE # 709
0ABA 900000      E     MOV     DPTR,#?_strcat?BYTE+03H
0ABD 74FF              MOV     A,#0FFH
0ABF F0                MOVX    @DPTR,A
0AC0 A3                INC     DPTR
0AC1 7400        R     MOV     A,#HIGH ?SC_12
0AC3 F0                MOVX    @DPTR,A
0AC4 A3                INC     DPTR
0AC5 7400        R     MOV     A,#LOW ?SC_12
0AC7 F0                MOVX    @DPTR,A
0AC8 900000      R     MOV     DPTR,#info_string
0ACB E0                MOVX    A,@DPTR
0ACC FB                MOV     R3,A
0ACD A3                INC     DPTR
0ACE E0                MOVX    A,@DPTR
0ACF FA                MOV     R2,A
0AD0 A3                INC     DPTR
0AD1 E0                MOVX    A,@DPTR
0AD2 F9                MOV     R1,A
0AD3 120000      E     LCALL   _strcat
                                           ; SOURCE LINE # 711
0AD6 900000      E     MOV     DPTR,#?_sprintf?BYTE+03H
0AD9 74FF              MOV     A,#0FFH
0ADB F0                MOVX    @DPTR,A
0ADC A3                INC     DPTR
0ADD 7400        R     MOV     A,#HIGH ?SC_613
0ADF F0                MOVX    @DPTR,A
0AE0 A3                INC     DPTR
0AE1 7400        R     MOV     A,#LOW ?SC_613
0AE3 F0                MOVX    @DPTR,A
0AE4 900000      E     MOV     DPTR,#g_mem+0EH
0AE7 E0                MOVX    A,@DPTR
0AE8 FF                MOV     R7,A
0AE9 A3                INC     DPTR
0AEA E0                MOVX    A,@DPTR
0AEB 900000      E     MOV     DPTR,#?_sprintf?BYTE+06H
0AEE CF                XCH     A,R7
0AEF F0                MOVX    @DPTR,A
0AF0 A3                INC     DPTR
0AF1 EF                MOV     A,R7
0AF2 F0                MOVX    @DPTR,A
0AF3 7B01              MOV     R3,#01H
0AF5 7A00        R     MOV     R2,#HIGH str
0AF7 7900        R     MOV     R1,#LOW str
0AF9 120000      E     LCALL   _sprintf
                                           ; SOURCE LINE # 712
0AFC 900000      E     MOV     DPTR,#?_strcat?BYTE+03H
0AFF 7401              MOV     A,#01H
0B01 F0                MOVX    @DPTR,A
0B02 A3                INC     DPTR
0B03 7400        R     MOV     A,#HIGH str
C51 COMPILER V9.51   COMMAND_PROCESSING                                                    10/12/2016 17:30:47 PAGE 102 

0B05 F0                MOVX    @DPTR,A
0B06 A3                INC     DPTR
0B07 7400        R     MOV     A,#LOW str
0B09 F0                MOVX    @DPTR,A
0B0A 900000      R     MOV     DPTR,#info_string
0B0D E0                MOVX    A,@DPTR
0B0E FB                MOV     R3,A
0B0F A3                INC     DPTR
0B10 E0                MOVX    A,@DPTR
0B11 FA                MOV     R2,A
0B12 A3                INC     DPTR
0B13 E0                MOVX    A,@DPTR
0B14 F9                MOV     R1,A
0B15 120000      E     LCALL   _strcat
                                           ; SOURCE LINE # 713
0B18 900000      E     MOV     DPTR,#?_strcat?BYTE+03H
0B1B 74FF              MOV     A,#0FFH
0B1D F0                MOVX    @DPTR,A
0B1E A3                INC     DPTR
0B1F 7400        R     MOV     A,#HIGH ?SC_12
0B21 F0                MOVX    @DPTR,A
0B22 A3                INC     DPTR
0B23 7400        R     MOV     A,#LOW ?SC_12
0B25 F0                MOVX    @DPTR,A
0B26 900000      R     MOV     DPTR,#info_string
0B29 E0                MOVX    A,@DPTR
0B2A FB                MOV     R3,A
0B2B A3                INC     DPTR
0B2C E0                MOVX    A,@DPTR
0B2D FA                MOV     R2,A
0B2E A3                INC     DPTR
0B2F E0                MOVX    A,@DPTR
0B30 F9                MOV     R1,A
0B31 120000      E     LCALL   _strcat
                                           ; SOURCE LINE # 715
0B34 900000      E     MOV     DPTR,#?_sprintf?BYTE+03H
0B37 74FF              MOV     A,#0FFH
0B39 F0                MOVX    @DPTR,A
0B3A A3                INC     DPTR
0B3B 7400        R     MOV     A,#HIGH ?SC_631
0B3D F0                MOVX    @DPTR,A
0B3E A3                INC     DPTR
0B3F 7400        R     MOV     A,#LOW ?SC_631
0B41 F0                MOVX    @DPTR,A
0B42 900000      E     MOV     DPTR,#g_meas+01AH
0B45 E0                MOVX    A,@DPTR
0B46 FF                MOV     R7,A
0B47 A3                INC     DPTR
0B48 E0                MOVX    A,@DPTR
0B49 900000      E     MOV     DPTR,#?_sprintf?BYTE+06H
0B4C CF                XCH     A,R7
0B4D F0                MOVX    @DPTR,A
0B4E A3                INC     DPTR
0B4F EF                MOV     A,R7
0B50 F0                MOVX    @DPTR,A
0B51 7B01              MOV     R3,#01H
0B53 7A00        R     MOV     R2,#HIGH str
0B55 7900        R     MOV     R1,#LOW str
0B57 120000      E     LCALL   _sprintf
                                           ; SOURCE LINE # 716
0B5A 900000      E     MOV     DPTR,#?_strcat?BYTE+03H
0B5D 7401              MOV     A,#01H
C51 COMPILER V9.51   COMMAND_PROCESSING                                                    10/12/2016 17:30:47 PAGE 103 

0B5F F0                MOVX    @DPTR,A
0B60 A3                INC     DPTR
0B61 7400        R     MOV     A,#HIGH str
0B63 F0                MOVX    @DPTR,A
0B64 A3                INC     DPTR
0B65 7400        R     MOV     A,#LOW str
0B67 F0                MOVX    @DPTR,A
0B68 900000      R     MOV     DPTR,#info_string
0B6B E0                MOVX    A,@DPTR
0B6C FB                MOV     R3,A
0B6D A3                INC     DPTR
0B6E E0                MOVX    A,@DPTR
0B6F FA                MOV     R2,A
0B70 A3                INC     DPTR
0B71 E0                MOVX    A,@DPTR
0B72 F9                MOV     R1,A
0B73 120000      E     LCALL   _strcat
                                           ; SOURCE LINE # 717
0B76 900000      E     MOV     DPTR,#?_strcat?BYTE+03H
0B79 74FF              MOV     A,#0FFH
0B7B F0                MOVX    @DPTR,A
0B7C A3                INC     DPTR
0B7D 7400        R     MOV     A,#HIGH ?SC_12
0B7F F0                MOVX    @DPTR,A
0B80 A3                INC     DPTR
0B81 7400        R     MOV     A,#LOW ?SC_12
0B83 F0                MOVX    @DPTR,A
0B84 900000      R     MOV     DPTR,#info_string
0B87 E0                MOVX    A,@DPTR
0B88 FB                MOV     R3,A
0B89 A3                INC     DPTR
0B8A E0                MOVX    A,@DPTR
0B8B FA                MOV     R2,A
0B8C A3                INC     DPTR
0B8D E0                MOVX    A,@DPTR
0B8E F9                MOV     R1,A
0B8F 120000      E     LCALL   _strcat
                                           ; SOURCE LINE # 719
0B92 900000      E     MOV     DPTR,#?_sprintf?BYTE+03H
0B95 74FF              MOV     A,#0FFH
0B97 F0                MOVX    @DPTR,A
0B98 A3                INC     DPTR
0B99 7400        R     MOV     A,#HIGH ?SC_641
0B9B F0                MOVX    @DPTR,A
0B9C A3                INC     DPTR
0B9D 7400        R     MOV     A,#LOW ?SC_641
0B9F F0                MOVX    @DPTR,A
0BA0 900000      E     MOV     DPTR,#g_meas+016H
0BA3 E0                MOVX    A,@DPTR
0BA4 FF                MOV     R7,A
0BA5 A3                INC     DPTR
0BA6 E0                MOVX    A,@DPTR
0BA7 900000      E     MOV     DPTR,#?_sprintf?BYTE+06H
0BAA CF                XCH     A,R7
0BAB F0                MOVX    @DPTR,A
0BAC A3                INC     DPTR
0BAD EF                MOV     A,R7
0BAE F0                MOVX    @DPTR,A
0BAF 7B01              MOV     R3,#01H
0BB1 7A00        R     MOV     R2,#HIGH str
0BB3 7900        R     MOV     R1,#LOW str
0BB5 120000      E     LCALL   _sprintf
C51 COMPILER V9.51   COMMAND_PROCESSING                                                    10/12/2016 17:30:47 PAGE 104 

                                           ; SOURCE LINE # 720
0BB8 900000      E     MOV     DPTR,#?_strcat?BYTE+03H
0BBB 7401              MOV     A,#01H
0BBD F0                MOVX    @DPTR,A
0BBE A3                INC     DPTR
0BBF 7400        R     MOV     A,#HIGH str
0BC1 F0                MOVX    @DPTR,A
0BC2 A3                INC     DPTR
0BC3 7400        R     MOV     A,#LOW str
0BC5 F0                MOVX    @DPTR,A
0BC6 900000      R     MOV     DPTR,#info_string
0BC9 E0                MOVX    A,@DPTR
0BCA FB                MOV     R3,A
0BCB A3                INC     DPTR
0BCC E0                MOVX    A,@DPTR
0BCD FA                MOV     R2,A
0BCE A3                INC     DPTR
0BCF E0                MOVX    A,@DPTR
0BD0 F9                MOV     R1,A
0BD1 120000      E     LCALL   _strcat
                                           ; SOURCE LINE # 721
0BD4 900000      E     MOV     DPTR,#?_strcat?BYTE+03H
0BD7 74FF              MOV     A,#0FFH
0BD9 F0                MOVX    @DPTR,A
0BDA A3                INC     DPTR
0BDB 7400        R     MOV     A,#HIGH ?SC_12
0BDD F0                MOVX    @DPTR,A
0BDE A3                INC     DPTR
0BDF 7400        R     MOV     A,#LOW ?SC_12
0BE1 F0                MOVX    @DPTR,A
0BE2 900000      R     MOV     DPTR,#info_string
0BE5 E0                MOVX    A,@DPTR
0BE6 FB                MOV     R3,A
0BE7 A3                INC     DPTR
0BE8 E0                MOVX    A,@DPTR
0BE9 FA                MOV     R2,A
0BEA A3                INC     DPTR
0BEB E0                MOVX    A,@DPTR
0BEC F9                MOV     R1,A
0BED 120000      E     LCALL   _strcat
                                           ; SOURCE LINE # 723
0BF0 900000      E     MOV     DPTR,#?_sprintf?BYTE+03H
0BF3 74FF              MOV     A,#0FFH
0BF5 F0                MOVX    @DPTR,A
0BF6 A3                INC     DPTR
0BF7 7400        R     MOV     A,#HIGH ?SC_648
0BF9 F0                MOVX    @DPTR,A
0BFA A3                INC     DPTR
0BFB 7400        R     MOV     A,#LOW ?SC_648
0BFD F0                MOVX    @DPTR,A
0BFE 900000      E     MOV     DPTR,#timer_value
0C01 E0                MOVX    A,@DPTR
0C02 F8                MOV     R0,A
0C03 A3                INC     DPTR
0C04 E0                MOVX    A,@DPTR
0C05 F9                MOV     R1,A
0C06 A3                INC     DPTR
0C07 E0                MOVX    A,@DPTR
0C08 FA                MOV     R2,A
0C09 A3                INC     DPTR
0C0A E0                MOVX    A,@DPTR
0C0B FB                MOV     R3,A
C51 COMPILER V9.51   COMMAND_PROCESSING                                                    10/12/2016 17:30:47 PAGE 105 

0C0C 900000      E     MOV     DPTR,#timer_value0
0C0F E0                MOVX    A,@DPTR
0C10 FC                MOV     R4,A
0C11 A3                INC     DPTR
0C12 E0                MOVX    A,@DPTR
0C13 FD                MOV     R5,A
0C14 A3                INC     DPTR
0C15 E0                MOVX    A,@DPTR
0C16 FE                MOV     R6,A
0C17 A3                INC     DPTR
0C18 E0                MOVX    A,@DPTR
0C19 C3                CLR     C
0C1A 9B                SUBB    A,R3
0C1B FF                MOV     R7,A
0C1C EE                MOV     A,R6
0C1D 9A                SUBB    A,R2
0C1E FE                MOV     R6,A
0C1F ED                MOV     A,R5
0C20 99                SUBB    A,R1
0C21 FD                MOV     R5,A
0C22 EC                MOV     A,R4
0C23 98                SUBB    A,R0
0C24 FC                MOV     R4,A
0C25 900000      E     MOV     DPTR,#?_sprintf?BYTE+06H
0C28 120000      E     LCALL   ?C?LSTXDATA
0C2B 7B01              MOV     R3,#01H
0C2D 7A00        R     MOV     R2,#HIGH str
0C2F 7900        R     MOV     R1,#LOW str
0C31 120000      E     LCALL   _sprintf
                                           ; SOURCE LINE # 724
0C34 900000      E     MOV     DPTR,#?_strcat?BYTE+03H
0C37 7401              MOV     A,#01H
0C39 F0                MOVX    @DPTR,A
0C3A A3                INC     DPTR
0C3B 7400        R     MOV     A,#HIGH str
0C3D F0                MOVX    @DPTR,A
0C3E A3                INC     DPTR
0C3F 7400        R     MOV     A,#LOW str
0C41 F0                MOVX    @DPTR,A
0C42 900000      R     MOV     DPTR,#info_string
0C45 E0                MOVX    A,@DPTR
0C46 FB                MOV     R3,A
0C47 A3                INC     DPTR
0C48 E0                MOVX    A,@DPTR
0C49 FA                MOV     R2,A
0C4A A3                INC     DPTR
0C4B E0                MOVX    A,@DPTR
0C4C F9                MOV     R1,A
0C4D 120000      E     LCALL   _strcat
                                           ; SOURCE LINE # 725
0C50 900000      E     MOV     DPTR,#?_strcat?BYTE+03H
0C53 74FF              MOV     A,#0FFH
0C55 F0                MOVX    @DPTR,A
0C56 A3                INC     DPTR
0C57 7400        R     MOV     A,#HIGH ?SC_12
0C59 F0                MOVX    @DPTR,A
0C5A A3                INC     DPTR
0C5B 7400        R     MOV     A,#LOW ?SC_12
0C5D F0                MOVX    @DPTR,A
0C5E 900000      R     MOV     DPTR,#info_string
0C61 E0                MOVX    A,@DPTR
0C62 FB                MOV     R3,A
C51 COMPILER V9.51   COMMAND_PROCESSING                                                    10/12/2016 17:30:47 PAGE 106 

0C63 A3                INC     DPTR
0C64 E0                MOVX    A,@DPTR
0C65 FA                MOV     R2,A
0C66 A3                INC     DPTR
0C67 E0                MOVX    A,@DPTR
0C68 F9                MOV     R1,A
0C69 120000      E     LCALL   _strcat
                                           ; SOURCE LINE # 726
0C6C 22                RET     
             ; FUNCTION _infoPrepare (END)

             ; FUNCTION _commWrite_old_id (BEGIN)
                                           ; SOURCE LINE # 732
0000 900000      R     MOV     DPTR,#packet_data
0003 EB                MOV     A,R3
0004 F0                MOVX    @DPTR,A
0005 A3                INC     DPTR
0006 EA                MOV     A,R2
0007 F0                MOVX    @DPTR,A
0008 A3                INC     DPTR
0009 E9                MOV     A,R1
000A F0                MOVX    @DPTR,A
000B A3                INC     DPTR
000C EC                MOV     A,R4
000D F0                MOVX    @DPTR,A
000E A3                INC     DPTR
000F ED                MOV     A,R5
0010 F0                MOVX    @DPTR,A
                                           ; SOURCE LINE # 733
                                           ; SOURCE LINE # 737
0011 7F3A              MOV     R7,#03AH
0013 120000      E     LCALL   _UART_RS485_PutChar
                                           ; SOURCE LINE # 738
0016 7F3A              MOV     R7,#03AH
0018 120000      E     LCALL   _UART_RS485_PutChar
                                           ; SOURCE LINE # 741
001B 900000      R     MOV     DPTR,#old_id
001E E0                MOVX    A,@DPTR
001F FF                MOV     R7,A
0020 120000      E     LCALL   _UART_RS485_PutChar
                                           ; SOURCE LINE # 746
0023 900000      R     MOV     DPTR,#packet_lenght
0026 E0                MOVX    A,@DPTR
0027 A3                INC     DPTR
0028 E0                MOVX    A,@DPTR
0029 FF                MOV     R7,A
002A 120000      E     LCALL   _UART_RS485_PutChar
                                           ; SOURCE LINE # 748
002D E4                CLR     A
002E F500        R     MOV     index,A
0030 F500        R     MOV     index+01H,A
0032         ?C0166:
0032 D3                SETB    C
0033 900000      R     MOV     DPTR,#packet_lenght+01H
0036 E0                MOVX    A,@DPTR
0037 9500        R     SUBB    A,index+01H
0039 900000      R     MOV     DPTR,#packet_lenght
003C E0                MOVX    A,@DPTR
003D 9500        R     SUBB    A,index
003F 4022              JC      ?C0167
                                           ; SOURCE LINE # 749
0041 900000      R     MOV     DPTR,#packet_data
C51 COMPILER V9.51   COMMAND_PROCESSING                                                    10/12/2016 17:30:47 PAGE 107 

0044 E0                MOVX    A,@DPTR
0045 FB                MOV     R3,A
0046 A3                INC     DPTR
0047 E0                MOVX    A,@DPTR
0048 FA                MOV     R2,A
0049 A3                INC     DPTR
004A E0                MOVX    A,@DPTR
004B 2500        R     ADD     A,index+01H
004D F9                MOV     R1,A
004E EA                MOV     A,R2
004F 3500        R     ADDC    A,index
0051 FA                MOV     R2,A
0052 120000      E     LCALL   ?C?CLDPTR
0055 FF                MOV     R7,A
0056 120000      E     LCALL   _UART_RS485_PutChar
                                           ; SOURCE LINE # 750
0059 0500        R     INC     index+01H
005B E500        R     MOV     A,index+01H
005D 7002              JNZ     ?C0318
005F 0500        R     INC     index
0061         ?C0318:
0061 80CF              SJMP    ?C0166
0063         ?C0167:
                                           ; SOURCE LINE # 752
0063 E4                CLR     A
0064 F500        R     MOV     index,A
0066 F500        R     MOV     index+01H,A
0068         ?C0169:
                                           ; SOURCE LINE # 754
0068 120000      E     LCALL   UART_RS485_ReadTxStatus
006B EF                MOV     A,R7
006C 20E013            JB      ACC.0,?C0170
006F 0500        R     INC     index+01H
0071 E500        R     MOV     A,index+01H
0073 AE00        R     MOV     R6,index
0075 7002              JNZ     ?C0319
0077 0500        R     INC     index
0079         ?C0319:
0079 14                DEC     A
007A D3                SETB    C
007B 94E8              SUBB    A,#0E8H
007D EE                MOV     A,R6
007E 9403              SUBB    A,#03H
0080 40E6              JC      ?C0169
0082         ?C0170:
                                           ; SOURCE LINE # 756
0082 7F01              MOV     R7,#01H
0084 120000      E     LCALL   _RS485_CTS_Write
                                           ; SOURCE LINE # 757
0087 E4                CLR     A
0088 FF                MOV     R7,A
0089 120000      E     LCALL   _RS485_CTS_Write
                                           ; SOURCE LINE # 758
008C 22                RET     
             ; FUNCTION _commWrite_old_id (END)

             ; FUNCTION _commWrite (BEGIN)
                                           ; SOURCE LINE # 760
0000 900000      R     MOV     DPTR,#packet_data
0003 EB                MOV     A,R3
0004 F0                MOVX    @DPTR,A
0005 A3                INC     DPTR
C51 COMPILER V9.51   COMMAND_PROCESSING                                                    10/12/2016 17:30:47 PAGE 108 

0006 EA                MOV     A,R2
0007 F0                MOVX    @DPTR,A
0008 A3                INC     DPTR
0009 E9                MOV     A,R1
000A F0                MOVX    @DPTR,A
000B A3                INC     DPTR
000C EC                MOV     A,R4
000D F0                MOVX    @DPTR,A
000E A3                INC     DPTR
000F ED                MOV     A,R5
0010 F0                MOVX    @DPTR,A
                                           ; SOURCE LINE # 761
                                           ; SOURCE LINE # 765
0011 7F3A              MOV     R7,#03AH
0013 120000      E     LCALL   _UART_RS485_PutChar
                                           ; SOURCE LINE # 766
0016 7F3A              MOV     R7,#03AH
0018 120000      E     LCALL   _UART_RS485_PutChar
                                           ; SOURCE LINE # 769
001B 900000      R     MOV     DPTR,#next
001E E0                MOVX    A,@DPTR
001F 600B              JZ      ?C0172
                                           ; SOURCE LINE # 772
0021 900000      E     MOV     DPTR,#g_mem+01H
0024 E0                MOVX    A,@DPTR
0025 04                INC     A
0026 FF                MOV     R7,A
0027 120000      E     LCALL   _UART_RS485_PutChar
002A 8008              SJMP    ?C0173
002C         ?C0172:
                                           ; SOURCE LINE # 774
002C 900000      E     MOV     DPTR,#g_mem+01H
002F E0                MOVX    A,@DPTR
0030 FF                MOV     R7,A
0031 120000      E     LCALL   _UART_RS485_PutChar
0034         ?C0173:
                                           ; SOURCE LINE # 777
0034 900000      R     MOV     DPTR,#packet_lenght
0037 E0                MOVX    A,@DPTR
0038 A3                INC     DPTR
0039 E0                MOVX    A,@DPTR
003A FF                MOV     R7,A
003B 120000      E     LCALL   _UART_RS485_PutChar
                                           ; SOURCE LINE # 780
003E E4                CLR     A
003F F500        R     MOV     index,A
0041 F500        R     MOV     index+01H,A
0043         ?C0174:
0043 D3                SETB    C
0044 900000      R     MOV     DPTR,#packet_lenght+01H
0047 E0                MOVX    A,@DPTR
0048 9500        R     SUBB    A,index+01H
004A 900000      R     MOV     DPTR,#packet_lenght
004D E0                MOVX    A,@DPTR
004E 9500        R     SUBB    A,index
0050 4022              JC      ?C0175
                                           ; SOURCE LINE # 781
0052 900000      R     MOV     DPTR,#packet_data
0055 E0                MOVX    A,@DPTR
0056 FB                MOV     R3,A
0057 A3                INC     DPTR
0058 E0                MOVX    A,@DPTR
C51 COMPILER V9.51   COMMAND_PROCESSING                                                    10/12/2016 17:30:47 PAGE 109 

0059 FA                MOV     R2,A
005A A3                INC     DPTR
005B E0                MOVX    A,@DPTR
005C 2500        R     ADD     A,index+01H
005E F9                MOV     R1,A
005F EA                MOV     A,R2
0060 3500        R     ADDC    A,index
0062 FA                MOV     R2,A
0063 120000      E     LCALL   ?C?CLDPTR
0066 FF                MOV     R7,A
0067 120000      E     LCALL   _UART_RS485_PutChar
006A 0500        R     INC     index+01H
006C E500        R     MOV     A,index+01H
006E 7002              JNZ     ?C0320
0070 0500        R     INC     index
0072         ?C0320:
0072 80CF              SJMP    ?C0174
0074         ?C0175:
                                           ; SOURCE LINE # 783
0074 E4                CLR     A
0075 F500        R     MOV     index,A
0077 F500        R     MOV     index+01H,A
0079         ?C0177:
                                           ; SOURCE LINE # 785
0079 120000      E     LCALL   UART_RS485_ReadTxStatus
007C EF                MOV     A,R7
007D 20E013            JB      ACC.0,?C0178
0080 0500        R     INC     index+01H
0082 E500        R     MOV     A,index+01H
0084 AE00        R     MOV     R6,index
0086 7002              JNZ     ?C0321
0088 0500        R     INC     index
008A         ?C0321:
008A 14                DEC     A
008B D3                SETB    C
008C 94E8              SUBB    A,#0E8H
008E EE                MOV     A,R6
008F 9403              SUBB    A,#03H
0091 40E6              JC      ?C0177
0093         ?C0178:
                                           ; SOURCE LINE # 787
0093 900000      R     MOV     DPTR,#next
0096 E0                MOVX    A,@DPTR
0097 700A              JNZ     ?C0180
                                           ; SOURCE LINE # 788
0099 7F01              MOV     R7,#01H
009B 120000      E     LCALL   _RS485_CTS_Write
                                           ; SOURCE LINE # 789
009E E4                CLR     A
009F FF                MOV     R7,A
00A0 120000      E     LCALL   _RS485_CTS_Write
                                           ; SOURCE LINE # 790
                                           ; SOURCE LINE # 791
00A3         ?C0180:
00A3 22                RET     
             ; FUNCTION _commWrite (END)

             ; FUNCTION _sendAcknowledgment (BEGIN)
                                           ; SOURCE LINE # 797
;---- Variable 'value' assigned to Register 'R7' ----
                                           ; SOURCE LINE # 804
0000 8F00        R     MOV     packet_data,R7
C51 COMPILER V9.51   COMMAND_PROCESSING                                                    10/12/2016 17:30:47 PAGE 110 

                                           ; SOURCE LINE # 807
0002 8F00        R     MOV     packet_data+01H,R7
                                           ; SOURCE LINE # 809
0004 7B00              MOV     R3,#00H
0006 7A00        R     MOV     R2,#HIGH packet_data
0008 7900        R     MOV     R1,#LOW packet_data
000A E4                CLR     A
000B 900000      R     MOV     DPTR,#?_commWrite?BYTE+05H
000E F0                MOVX    @DPTR,A
000F 7D02              MOV     R5,#02H
0011 FC                MOV     R4,A
0012 120000      R     LCALL   _commWrite
                                           ; SOURCE LINE # 810
0015 22                RET     
             ; FUNCTION _sendAcknowledgment (END)

             ; FUNCTION _memStore (BEGIN)
                                           ; SOURCE LINE # 820
0000 900000      R     MOV     DPTR,#displacement
0003 EE                MOV     A,R6
0004 F0                MOVX    @DPTR,A
0005 A3                INC     DPTR
0006 EF                MOV     A,R7
0007 F0                MOVX    @DPTR,A
                                           ; SOURCE LINE # 825
0008 900000      R     MOV     DPTR,#ret_val
000B 7401              MOV     A,#01H
000D F0                MOVX    @DPTR,A
                                           ; SOURCE LINE # 827
000E E4                CLR     A
000F FF                MOV     R7,A
0010 120000      E     LCALL   _PWM_MOTORS_WriteCompare1
                                           ; SOURCE LINE # 828
0013 E4                CLR     A
0014 FF                MOV     R7,A
0015 120000      E     LCALL   _PWM_MOTORS_WriteCompare2
                                           ; SOURCE LINE # 831
0018 120000      E     LCALL   EEPROM_UpdateTemperature
                                           ; SOURCE LINE # 833
001B 7800        E     MOV     R0,#LOW c_mem
001D 7C00        E     MOV     R4,#HIGH c_mem
001F 7D01              MOV     R5,#01H
0021 7B01              MOV     R3,#01H
0023 7A00        E     MOV     R2,#HIGH g_mem
0025 7900        E     MOV     R1,#LOW g_mem
0027 7E00              MOV     R6,#00H
0029 7F5B              MOV     R7,#05BH
002B 120000      E     LCALL   ?C?COPYAMD
                                           ; SOURCE LINE # 835
002E 900000      R     MOV     DPTR,#pages
0031 E4                CLR     A
0032 F0                MOVX    @DPTR,A
0033 A3                INC     DPTR
0034 7406              MOV     A,#06H
0036 F0                MOVX    @DPTR,A
                                           ; SOURCE LINE # 837
0037 E4                CLR     A
0038 900000      R     MOV     DPTR,#i
003B F0                MOVX    @DPTR,A
003C A3                INC     DPTR
003D F0                MOVX    @DPTR,A
003E         ?C0182:
C51 COMPILER V9.51   COMMAND_PROCESSING                                                    10/12/2016 17:30:47 PAGE 111 

003E 900000      R     MOV     DPTR,#pages
0041 E0                MOVX    A,@DPTR
0042 FE                MOV     R6,A
0043 A3                INC     DPTR
0044 E0                MOVX    A,@DPTR
0045 FF                MOV     R7,A
0046 900000      R     MOV     DPTR,#i
0049 E0                MOVX    A,@DPTR
004A FC                MOV     R4,A
004B A3                INC     DPTR
004C E0                MOVX    A,@DPTR
004D FD                MOV     R5,A
004E C3                CLR     C
004F 9F                SUBB    A,R7
0050 EE                MOV     A,R6
0051 6480              XRL     A,#080H
0053 F8                MOV     R0,A
0054 EC                MOV     A,R4
0055 6480              XRL     A,#080H
0057 98                SUBB    A,R0
0058 503F              JNC     ?C0183
                                           ; SOURCE LINE # 838
005A ED                MOV     A,R5
005B C4                SWAP    A
005C F8                MOV     R0,A
005D 540F              ANL     A,#0FH
005F C8                XCH     A,R0
0060 68                XRL     A,R0
0061 FF                MOV     R7,A
0062 EC                MOV     A,R4
0063 C4                SWAP    A
0064 54F0              ANL     A,#0F0H
0066 48                ORL     A,R0
0067 FE                MOV     R6,A
0068 7B01              MOV     R3,#01H
006A 7400        E     MOV     A,#LOW g_mem
006C 2F                ADD     A,R7
006D F9                MOV     R1,A
006E 7400        E     MOV     A,#HIGH g_mem
0070 3E                ADDC    A,R6
0071 FA                MOV     R2,A
0072 900000      R     MOV     DPTR,#displacement
0075 E0                MOVX    A,@DPTR
0076 A3                INC     DPTR
0077 E0                MOVX    A,@DPTR
0078 FF                MOV     R7,A
0079 ED                MOV     A,R5
007A 2F                ADD     A,R7
007B FD                MOV     R5,A
007C 120000      E     LCALL   _EEPROM_Write
;---- Variable 'writeStatus' assigned to Register 'R7' ----
                                           ; SOURCE LINE # 839
007F EF                MOV     A,R7
0080 6007              JZ      ?C0184
                                           ; SOURCE LINE # 840
0082 E4                CLR     A
0083 900000      R     MOV     DPTR,#ret_val
0086 F0                MOVX    @DPTR,A
                                           ; SOURCE LINE # 841
0087 8010              SJMP    ?C0183
                                           ; SOURCE LINE # 842
                                           ; SOURCE LINE # 843
C51 COMPILER V9.51   COMMAND_PROCESSING                                                    10/12/2016 17:30:47 PAGE 112 

0089         ?C0184:
0089 900000      R     MOV     DPTR,#i+01H
008C E0                MOVX    A,@DPTR
008D 04                INC     A
008E F0                MOVX    @DPTR,A
008F 7006              JNZ     ?C0322
0091 900000      R     MOV     DPTR,#i
0094 E0                MOVX    A,@DPTR
0095 04                INC     A
0096 F0                MOVX    @DPTR,A
0097         ?C0322:
0097 80A5              SJMP    ?C0182
0099         ?C0183:
                                           ; SOURCE LINE # 845
0099 7800        E     MOV     R0,#LOW g_mem
009B 7C00        E     MOV     R4,#HIGH g_mem
009D 7D01              MOV     R5,#01H
009F 7B01              MOV     R3,#01H
00A1 7A00        E     MOV     R2,#HIGH c_mem
00A3 7900        E     MOV     R1,#LOW c_mem
00A5 7E00              MOV     R6,#00H
00A7 7F5B              MOV     R7,#05BH
00A9 120000      E     LCALL   ?C?COPYAMD
                                           ; SOURCE LINE # 847
00AC 900000      R     MOV     DPTR,#ret_val
00AF E0                MOVX    A,@DPTR
00B0 FF                MOV     R7,A
                                           ; SOURCE LINE # 848
00B1         ?C0186:
00B1 22                RET     
             ; FUNCTION _memStore (END)

             ; FUNCTION memRecall (BEGIN)
                                           ; SOURCE LINE # 858
                                           ; SOURCE LINE # 862
;---- Variable 'i' assigned to Register 'R6/R7' ----
0000 E4                CLR     A
0001 FF                MOV     R7,A
0002 FE                MOV     R6,A
0003         ?C0187:
0003 C3                CLR     C
0004 EF                MOV     A,R7
0005 945B              SUBB    A,#05BH
0007 EE                MOV     A,R6
0008 9400              SUBB    A,#00H
000A 5023              JNC     ?C0188
                                           ; SOURCE LINE # 863
000C 900000      R     MOV     DPTR,#EEPROM_ADDR
000F E0                MOVX    A,@DPTR
0010 FC                MOV     R4,A
0011 A3                INC     DPTR
0012 E0                MOVX    A,@DPTR
0013 2F                ADD     A,R7
0014 F582              MOV     DPL,A
0016 EC                MOV     A,R4
0017 3E                ADDC    A,R6
0018 F583              MOV     DPH,A
001A E0                MOVX    A,@DPTR
001B FD                MOV     R5,A
001C 7400        E     MOV     A,#LOW g_mem
001E 2F                ADD     A,R7
001F F582              MOV     DPL,A
C51 COMPILER V9.51   COMMAND_PROCESSING                                                    10/12/2016 17:30:47 PAGE 113 

0021 7400        E     MOV     A,#HIGH g_mem
0023 3E                ADDC    A,R6
0024 F583              MOV     DPH,A
0026 ED                MOV     A,R5
0027 F0                MOVX    @DPTR,A
0028 0F                INC     R7
0029 EF                MOV     A,R7
002A 7001              JNZ     ?C0323
002C 0E                INC     R6
002D         ?C0323:
002D 80D4              SJMP    ?C0187
002F         ?C0188:
                                           ; SOURCE LINE # 867
002F 900000      E     MOV     DPTR,#g_mem
0032 E0                MOVX    A,@DPTR
0033 7004              JNZ     ?C0190
                                           ; SOURCE LINE # 868
0035 120000      R     LCALL   memRestore
0038 22                RET     
0039         ?C0190:
                                           ; SOURCE LINE # 870
0039 7800        E     MOV     R0,#LOW c_mem
003B 7C00        E     MOV     R4,#HIGH c_mem
003D 7D01              MOV     R5,#01H
003F 7B01              MOV     R3,#01H
0041 7A00        E     MOV     R2,#HIGH g_mem
0043 7900        E     MOV     R1,#LOW g_mem
0045 7E00              MOV     R6,#00H
0047 7F5B              MOV     R7,#05BH
0049 120000      E     LCALL   ?C?COPYAMD
                                           ; SOURCE LINE # 872
004C         ?C0192:
004C 22                RET     
             ; FUNCTION memRecall (END)

             ; FUNCTION memRestore (BEGIN)
                                           ; SOURCE LINE # 882
                                           ; SOURCE LINE # 886
;---- Variable 'i' assigned to Register 'R6/R7' ----
0000 E4                CLR     A
0001 FF                MOV     R7,A
0002 FE                MOV     R6,A
0003         ?C0193:
0003 C3                CLR     C
0004 EF                MOV     A,R7
0005 945B              SUBB    A,#05BH
0007 EE                MOV     A,R6
0008 9400              SUBB    A,#00H
000A 502A              JNC     ?C0194
                                           ; SOURCE LINE # 887
000C EF                MOV     A,R7
000D 2480              ADD     A,#080H
000F FD                MOV     R5,A
0010 E4                CLR     A
0011 3E                ADDC    A,R6
0012 FC                MOV     R4,A
0013 900000      R     MOV     DPTR,#EEPROM_ADDR
0016 E0                MOVX    A,@DPTR
0017 FA                MOV     R2,A
0018 A3                INC     DPTR
0019 E0                MOVX    A,@DPTR
001A 2D                ADD     A,R5
C51 COMPILER V9.51   COMMAND_PROCESSING                                                    10/12/2016 17:30:47 PAGE 114 

001B F582              MOV     DPL,A
001D EA                MOV     A,R2
001E 3C                ADDC    A,R4
001F F583              MOV     DPH,A
0021 E0                MOVX    A,@DPTR
0022 FD                MOV     R5,A
0023 7400        E     MOV     A,#LOW g_mem
0025 2F                ADD     A,R7
0026 F582              MOV     DPL,A
0028 7400        E     MOV     A,#HIGH g_mem
002A 3E                ADDC    A,R6
002B F583              MOV     DPH,A
002D ED                MOV     A,R5
002E F0                MOVX    @DPTR,A
002F 0F                INC     R7
0030 EF                MOV     A,R7
0031 7001              JNZ     ?C0324
0033 0E                INC     R6
0034         ?C0324:
0034 80CD              SJMP    ?C0193
0036         ?C0194:
                                           ; SOURCE LINE # 891
0036 900000      E     MOV     DPTR,#g_mem
0039 E0                MOVX    A,@DPTR
003A 7004              JNZ     ?C0196
                                           ; SOURCE LINE # 892
003C 120000      R     LCALL   memInit
003F 22                RET     
0040         ?C0196:
                                           ; SOURCE LINE # 894
0040 E4                CLR     A
0041 FF                MOV     R7,A
0042 FE                MOV     R6,A
0043 120000      R     LCALL   _memStore
                                           ; SOURCE LINE # 896
0046         ?C0197:
0046 22                RET     
             ; FUNCTION memRestore (END)

             ; FUNCTION memInit (BEGIN)
                                           ; SOURCE LINE # 905
                                           ; SOURCE LINE # 909
0000 900000      E     MOV     DPTR,#g_mem+01H
0003 7401              MOV     A,#01H
0005 F0                MOVX    @DPTR,A
                                           ; SOURCE LINE # 910
0006 E4                CLR     A
0007 7F99              MOV     R7,#099H
0009 7E19              MOV     R6,#019H
000B FD                MOV     R5,A
000C FC                MOV     R4,A
000D A3                INC     DPTR
000E 120000      E     LCALL   ?C?LSTXDATA
                                           ; SOURCE LINE # 911
0011 E4                CLR     A
0012 FF                MOV     R7,A
0013 FE                MOV     R6,A
0014 FD                MOV     R5,A
0015 FC                MOV     R4,A
0016 900000      E     MOV     DPTR,#g_mem+06H
0019 120000      E     LCALL   ?C?LSTXDATA
                                           ; SOURCE LINE # 912
C51 COMPILER V9.51   COMMAND_PROCESSING                                                    10/12/2016 17:30:47 PAGE 115 

001C E4                CLR     A
001D 7FCC              MOV     R7,#0CCH
001F 7ECC              MOV     R6,#0CCH
0021 FD                MOV     R5,A
0022 FC                MOV     R4,A
0023 900000      E     MOV     DPTR,#g_mem+0AH
0026 120000      E     LCALL   ?C?LSTXDATA
                                           ; SOURCE LINE # 914
0029 900000      E     MOV     DPTR,#g_mem+010H
002C 7401              MOV     A,#01H
002E F0                MOVX    @DPTR,A
                                           ; SOURCE LINE # 915
002F E4                CLR     A
0030 900000      E     MOV     DPTR,#g_mem+037H
0033 F0                MOVX    @DPTR,A
                                           ; SOURCE LINE # 917
0034 900000      E     MOV     DPTR,#g_mem+023H
0037 04                INC     A
0038 F0                MOVX    @DPTR,A
                                           ; SOURCE LINE # 919
0039 E4                CLR     A
003A F500        R     MOV     i,A
003C         ?C0199:
003C E500        R     MOV     A,i
003E C3                CLR     C
003F 9402              SUBB    A,#02H
0041 502B              JNC     ?C0200
                                           ; SOURCE LINE # 920
                                           ; SOURCE LINE # 921
0043 E4                CLR     A
0044 FF                MOV     R7,A
0045 FE                MOV     R6,A
0046 7D80              MOV     R5,#080H
0048 7C3F              MOV     R4,#03FH
004A E500        R     MOV     A,i
004C 25E0              ADD     A,ACC
004E 25E0              ADD     A,ACC
0050 2400        E     ADD     A,#LOW g_mem+01BH
0052 F582              MOV     DPL,A
0054 E4                CLR     A
0055 3400        E     ADDC    A,#HIGH g_mem+01BH
0057 F583              MOV     DPH,A
0059 120000      E     LCALL   ?C?LSTXDATA
                                           ; SOURCE LINE # 922
005C 7400        E     MOV     A,#LOW g_mem+011H
005E 2500        R     ADD     A,i
0060 F582              MOV     DPL,A
0062 E4                CLR     A
0063 3400        E     ADDC    A,#HIGH g_mem+011H
0065 F583              MOV     DPH,A
0067 7403              MOV     A,#03H
0069 F0                MOVX    @DPTR,A
                                           ; SOURCE LINE # 923
006A 0500        R     INC     i
006C 80CE              SJMP    ?C0199
006E         ?C0200:
                                           ; SOURCE LINE # 925
006E E4                CLR     A
006F F500        R     MOV     i,A
0071         ?C0202:
0071 E500        R     MOV     A,i
0073 C3                CLR     C
C51 COMPILER V9.51   COMMAND_PROCESSING                                                    10/12/2016 17:30:47 PAGE 116 

0074 9402              SUBB    A,#02H
0076 5070              JNC     ?C0203
                                           ; SOURCE LINE # 926
0078 7400        E     MOV     A,#LOW g_mem+011H
007A 2500        R     ADD     A,i
007C F582              MOV     DPL,A
007E E4                CLR     A
007F 3400        E     ADDC    A,#HIGH g_mem+011H
0081 F583              MOV     DPH,A
0083 E0                MOVX    A,@DPTR
0084 FF                MOV     R7,A
0085 7468              MOV     A,#068H
0087 7EC5              MOV     R6,#0C5H
0089 A807              MOV     R0,AR7
008B 08                INC     R0
008C 8005              SJMP    ?C0326
008E         ?C0325:
008E C3                CLR     C
008F 33                RLC     A
0090 CE                XCH     A,R6
0091 33                RLC     A
0092 CE                XCH     A,R6
0093         ?C0326:
0093 D8F9              DJNZ    R0,?C0325
0095 FF                MOV     R7,A
0096 EE                MOV     A,R6
0097 33                RLC     A
0098 95E0              SUBB    A,ACC
009A FD                MOV     R5,A
009B FC                MOV     R4,A
009C E500        R     MOV     A,i
009E 25E0              ADD     A,ACC
00A0 25E0              ADD     A,ACC
00A2 2400        E     ADD     A,#LOW g_mem+024H
00A4 F582              MOV     DPL,A
00A6 E4                CLR     A
00A7 3400        E     ADDC    A,#HIGH g_mem+024H
00A9 F583              MOV     DPH,A
00AB 120000      E     LCALL   ?C?LSTXDATA
                                           ; SOURCE LINE # 927
00AE 7400        E     MOV     A,#LOW g_mem+011H
00B0 2500        R     ADD     A,i
00B2 F582              MOV     DPL,A
00B4 E4                CLR     A
00B5 3400        E     ADDC    A,#HIGH g_mem+011H
00B7 F583              MOV     DPH,A
00B9 E0                MOVX    A,@DPTR
00BA FF                MOV     R7,A
00BB 7498              MOV     A,#098H
00BD 7E3A              MOV     R6,#03AH
00BF A807              MOV     R0,AR7
00C1 08                INC     R0
00C2 8005              SJMP    ?C0328
00C4         ?C0327:
00C4 C3                CLR     C
00C5 33                RLC     A
00C6 CE                XCH     A,R6
00C7 33                RLC     A
00C8 CE                XCH     A,R6
00C9         ?C0328:
00C9 D8F9              DJNZ    R0,?C0327
00CB FF                MOV     R7,A
C51 COMPILER V9.51   COMMAND_PROCESSING                                                    10/12/2016 17:30:47 PAGE 117 

00CC EE                MOV     A,R6
00CD 33                RLC     A
00CE 95E0              SUBB    A,ACC
00D0 FD                MOV     R5,A
00D1 FC                MOV     R4,A
00D2 E500        R     MOV     A,i
00D4 25E0              ADD     A,ACC
00D6 25E0              ADD     A,ACC
00D8 2400        E     ADD     A,#LOW g_mem+02CH
00DA F582              MOV     DPL,A
00DC E4                CLR     A
00DD 3400        E     ADDC    A,#HIGH g_mem+02CH
00DF F583              MOV     DPH,A
00E1 120000      E     LCALL   ?C?LSTXDATA
                                           ; SOURCE LINE # 928
00E4 0500        R     INC     i
00E6 8089              SJMP    ?C0202
00E8         ?C0203:
                                           ; SOURCE LINE # 930
00E8 E4                CLR     A
00E9 7F78              MOV     R7,#078H
00EB FE                MOV     R6,A
00EC FD                MOV     R5,A
00ED FC                MOV     R4,A
00EE 900000      E     MOV     DPTR,#g_mem+044H
00F1 120000      E     LCALL   ?C?LSTXDATA
                                           ; SOURCE LINE # 931
00F4 E4                CLR     A
00F5 7F6C              MOV     R7,#06CH
00F7 7E07              MOV     R6,#07H
00F9 FD                MOV     R5,A
00FA FC                MOV     R4,A
00FB 900000      E     MOV     DPTR,#g_mem+040H
00FE 120000      E     LCALL   ?C?LSTXDATA
                                           ; SOURCE LINE # 932
0101 E4                CLR     A
0102 7F3C              MOV     R7,#03CH
0104 FE                MOV     R6,A
0105 FD                MOV     R5,A
0106 FC                MOV     R4,A
0107 900000      E     MOV     DPTR,#g_mem+048H
010A 120000      E     LCALL   ?C?LSTXDATA
                                           ; SOURCE LINE # 933
010D E4                CLR     A
010E 7F46              MOV     R7,#046H
0110 7E05              MOV     R6,#05H
0112 FD                MOV     R5,A
0113 FC                MOV     R4,A
0114 900000      E     MOV     DPTR,#g_mem+04CH
0117 120000      E     LCALL   ?C?LSTXDATA
                                           ; SOURCE LINE # 934
011A 7F9C              MOV     R7,#09CH
011C 7EDC              MOV     R6,#0DCH
011E 7DEF              MOV     R5,#0EFH
0120 7C3A              MOV     R4,#03AH
0122 900000      E     MOV     DPTR,#g_mem+051H
0125 120000      E     LCALL   ?C?LSTXDATA
                                           ; SOURCE LINE # 935
0128 E4                CLR     A
0129 7F6E              MOV     R7,#06EH
012B FE                MOV     R6,A
012C FD                MOV     R5,A
C51 COMPILER V9.51   COMMAND_PROCESSING                                                    10/12/2016 17:30:47 PAGE 118 

012D FC                MOV     R4,A
012E 900000      E     MOV     DPTR,#g_mem+055H
0131 120000      E     LCALL   ?C?LSTXDATA
                                           ; SOURCE LINE # 936
0134 E4                CLR     A
0135 900000      E     MOV     DPTR,#g_mem+050H
0138 F0                MOVX    @DPTR,A
                                           ; SOURCE LINE # 938
0139 900000      E     MOV     DPTR,#g_mem+059H
013C 7417              MOV     A,#017H
013E F0                MOVX    @DPTR,A
013F A3                INC     DPTR
0140 7470              MOV     A,#070H
0142 F0                MOVX    @DPTR,A
                                           ; SOURCE LINE # 940
0143 E4                CLR     A
0144 FF                MOV     R7,A
0145 FE                MOV     R6,A
0146 FD                MOV     R5,A
0147 FC                MOV     R4,A
0148 900000      E     MOV     DPTR,#g_mem+011H
014B E0                MOVX    A,@DPTR
014C F9                MOV     R1,A
014D F8                MOV     R0,A
014E 120000      E     LCALL   ?C?LSHL
0151 900000      E     MOV     DPTR,#g_mem+013H
0154 120000      E     LCALL   ?C?LSTXDATA
                                           ; SOURCE LINE # 941
0157 E4                CLR     A
0158 FF                MOV     R7,A
0159 FE                MOV     R6,A
015A FD                MOV     R5,A
015B FC                MOV     R4,A
015C 900000      E     MOV     DPTR,#g_mem+012H
015F E0                MOVX    A,@DPTR
0160 F9                MOV     R1,A
0161 F8                MOV     R0,A
0162 120000      E     LCALL   ?C?LSHL
0165 900000      E     MOV     DPTR,#g_mem+017H
0168 120000      E     LCALL   ?C?LSTXDATA
                                           ; SOURCE LINE # 943
016B E4                CLR     A
016C 7FB8              MOV     R7,#0B8H
016E 7E0B              MOV     R6,#0BH
0170 FD                MOV     R5,A
0171 FC                MOV     R4,A
0172 900000      E     MOV     DPTR,#g_mem+011H
0175 E0                MOVX    A,@DPTR
0176 F9                MOV     R1,A
0177 F8                MOV     R0,A
0178 120000      E     LCALL   ?C?LSHL
017B 900000      E     MOV     DPTR,#g_mem+034H
017E EE                MOV     A,R6
017F F0                MOVX    @DPTR,A
0180 A3                INC     DPTR
0181 EF                MOV     A,R7
0182 F0                MOVX    @DPTR,A
                                           ; SOURCE LINE # 945
0183 900000      E     MOV     DPTR,#g_mem+0EH
0186 7405              MOV     A,#05H
0188 F0                MOVX    @DPTR,A
0189 A3                INC     DPTR
C51 COMPILER V9.51   COMMAND_PROCESSING                                                    10/12/2016 17:30:47 PAGE 119 

018A 74DC              MOV     A,#0DCH
018C F0                MOVX    @DPTR,A
                                           ; SOURCE LINE # 948
018D 900000      E     MOV     DPTR,#g_mem
0190 7401              MOV     A,#01H
0192 F0                MOVX    @DPTR,A
                                           ; SOURCE LINE # 951
0193 E4                CLR     A
0194 FF                MOV     R7,A
0195 FE                MOV     R6,A
0196 120000      R     LCALL   _memStore
0199 EF                MOV     A,R7
019A 600E              JZ      ?C0205
019C 7F08              MOV     R7,#08H
019E 7E00              MOV     R6,#00H
01A0 120000      R     LCALL   _memStore
01A3 EF                MOV     A,R7
01A4 6004              JZ      ?C0205
01A6 7F01              MOV     R7,#01H
01A8 8002              SJMP    ?C0206
01AA         ?C0205:
01AA 7F00              MOV     R7,#00H
01AC         ?C0206:
                                           ; SOURCE LINE # 952
01AC         ?C0207:
01AC 22                RET     
             ; FUNCTION memInit (END)

             ; FUNCTION cmd_get_measurements (BEGIN)
                                           ; SOURCE LINE # 961
                                           ; SOURCE LINE # 971
0000 900000      R     MOV     DPTR,#packet_data
0003 7484              MOV     A,#084H
0005 F0                MOVX    @DPTR,A
                                           ; SOURCE LINE # 973
0006 750002      R     MOV     index,#02H
0009         ?C0208:
0009 AF00        R     MOV     R7,index
000B 1500        R     DEC     index
000D EF                MOV     A,R7
000E 603F              JZ      ?C0209
                                           ; SOURCE LINE # 974
0010 E500        R     MOV     A,index
0012 25E0              ADD     A,ACC
0014 25E0              ADD     A,ACC
0016 2400        E     ADD     A,#LOW g_measOld
0018 F582              MOV     DPL,A
001A E4                CLR     A
001B 3400        E     ADDC    A,#HIGH g_measOld
001D F583              MOV     DPH,A
001F E0                MOVX    A,@DPTR
0020 FC                MOV     R4,A
0021 A3                INC     DPTR
0022 E0                MOVX    A,@DPTR
0023 FD                MOV     R5,A
0024 A3                INC     DPTR
0025 E0                MOVX    A,@DPTR
0026 FE                MOV     R6,A
0027 A3                INC     DPTR
0028 E0                MOVX    A,@DPTR
0029 FF                MOV     R7,A
002A 7400        E     MOV     A,#LOW g_mem+011H
C51 COMPILER V9.51   COMMAND_PROCESSING                                                    10/12/2016 17:30:47 PAGE 120 

002C 2500        R     ADD     A,index
002E F582              MOV     DPL,A
0030 E4                CLR     A
0031 3400        E     ADDC    A,#HIGH g_mem+011H
0033 F583              MOV     DPH,A
0035 E0                MOVX    A,@DPTR
0036 F9                MOV     R1,A
0037 F8                MOV     R0,A
0038 120000      E     LCALL   ?C?SLSHR
003B E500        R     MOV     A,index
003D 25E0              ADD     A,ACC
003F 2400        R     ADD     A,#LOW packet_data+01H
0041 F582              MOV     DPL,A
0043 E4                CLR     A
0044 3400        R     ADDC    A,#HIGH packet_data+01H
0046 F583              MOV     DPH,A
0048 EE                MOV     A,R6
0049 F0                MOVX    @DPTR,A
004A A3                INC     DPTR
004B EF                MOV     A,R7
004C F0                MOVX    @DPTR,A
004D 80BA              SJMP    ?C0208
004F         ?C0209:
                                           ; SOURCE LINE # 978
004F 7B01              MOV     R3,#01H
0051 7A00        R     MOV     R2,#HIGH packet_data
0053 7900        R     MOV     R1,#LOW packet_data
0055 7D05              MOV     R5,#05H
0057 120000      E     LCALL   _LCRChecksum
005A 900000      R     MOV     DPTR,#packet_data+05H
005D EF                MOV     A,R7
005E F0                MOVX    @DPTR,A
                                           ; SOURCE LINE # 979
005F 7B01              MOV     R3,#01H
0061 7A00        R     MOV     R2,#HIGH packet_data
0063 7900        R     MOV     R1,#LOW packet_data
0065 E4                CLR     A
0066 900000      R     MOV     DPTR,#?_commWrite?BYTE+05H
0069 F0                MOVX    @DPTR,A
006A 7D06              MOV     R5,#06H
006C FC                MOV     R4,A
006D 120000      R     LCALL   _commWrite
                                           ; SOURCE LINE # 981
0070 22                RET     
             ; FUNCTION cmd_get_measurements (END)

             ; FUNCTION cmd_get_inputs (BEGIN)
                                           ; SOURCE LINE # 983
                                           ; SOURCE LINE # 991
0000 900000      R     MOV     DPTR,#packet_data
0003 7483              MOV     A,#083H
0005 F0                MOVX    @DPTR,A
                                           ; SOURCE LINE # 993
0006 900000      E     MOV     DPTR,#g_refOld
0009 E0                MOVX    A,@DPTR
000A FC                MOV     R4,A
000B A3                INC     DPTR
000C E0                MOVX    A,@DPTR
000D FD                MOV     R5,A
000E A3                INC     DPTR
000F E0                MOVX    A,@DPTR
0010 FE                MOV     R6,A
C51 COMPILER V9.51   COMMAND_PROCESSING                                                    10/12/2016 17:30:47 PAGE 121 

0011 A3                INC     DPTR
0012 E0                MOVX    A,@DPTR
0013 FF                MOV     R7,A
0014 900000      E     MOV     DPTR,#g_mem+011H
0017 E0                MOVX    A,@DPTR
0018 F9                MOV     R1,A
0019 F8                MOV     R0,A
001A 120000      E     LCALL   ?C?SLSHR
001D 900000      R     MOV     DPTR,#packet_data+01H
0020 EE                MOV     A,R6
0021 F0                MOVX    @DPTR,A
0022 A3                INC     DPTR
0023 EF                MOV     A,R7
0024 F0                MOVX    @DPTR,A
                                           ; SOURCE LINE # 994
0025 900000      E     MOV     DPTR,#g_refOld+04H
0028 E0                MOVX    A,@DPTR
0029 FC                MOV     R4,A
002A A3                INC     DPTR
002B E0                MOVX    A,@DPTR
002C FD                MOV     R5,A
002D A3                INC     DPTR
002E E0                MOVX    A,@DPTR
002F FE                MOV     R6,A
0030 A3                INC     DPTR
0031 E0                MOVX    A,@DPTR
0032 FF                MOV     R7,A
0033 900000      E     MOV     DPTR,#g_mem+012H
0036 E0                MOVX    A,@DPTR
0037 F9                MOV     R1,A
0038 F8                MOV     R0,A
0039 120000      E     LCALL   ?C?SLSHR
003C 900000      R     MOV     DPTR,#packet_data+03H
003F EE                MOV     A,R6
0040 F0                MOVX    @DPTR,A
0041 A3                INC     DPTR
0042 EF                MOV     A,R7
0043 F0                MOVX    @DPTR,A
                                           ; SOURCE LINE # 998
0044 7B01              MOV     R3,#01H
0046 7A00        R     MOV     R2,#HIGH packet_data
0048 7900        R     MOV     R1,#LOW packet_data
004A 7D05              MOV     R5,#05H
004C 120000      E     LCALL   _LCRChecksum
004F 900000      R     MOV     DPTR,#packet_data+05H
0052 EF                MOV     A,R7
0053 F0                MOVX    @DPTR,A
                                           ; SOURCE LINE # 1000
0054 7B01              MOV     R3,#01H
0056 7A00        R     MOV     R2,#HIGH packet_data
0058 7900        R     MOV     R1,#LOW packet_data
005A E4                CLR     A
005B 900000      R     MOV     DPTR,#?_commWrite?BYTE+05H
005E F0                MOVX    @DPTR,A
005F 7D06              MOV     R5,#06H
0061 FC                MOV     R4,A
0062 120000      R     LCALL   _commWrite
                                           ; SOURCE LINE # 1002
0065 22                RET     
             ; FUNCTION cmd_get_inputs (END)

             ; FUNCTION cmd_get_currents (BEGIN)
C51 COMPILER V9.51   COMMAND_PROCESSING                                                    10/12/2016 17:30:47 PAGE 122 

                                           ; SOURCE LINE # 1004
                                           ; SOURCE LINE # 1012
0000 900000      R     MOV     DPTR,#packet_data
0003 7485              MOV     A,#085H
0005 F0                MOVX    @DPTR,A
                                           ; SOURCE LINE # 1014
0006 900000      E     MOV     DPTR,#g_measOld+08H
0009 E0                MOVX    A,@DPTR
000A FF                MOV     R7,A
000B A3                INC     DPTR
000C E0                MOVX    A,@DPTR
000D 900000      R     MOV     DPTR,#packet_data+01H
0010 CF                XCH     A,R7
0011 F0                MOVX    @DPTR,A
0012 A3                INC     DPTR
0013 EF                MOV     A,R7
0014 F0                MOVX    @DPTR,A
                                           ; SOURCE LINE # 1015
0015 900000      E     MOV     DPTR,#g_measOld+0AH
0018 E0                MOVX    A,@DPTR
0019 FF                MOV     R7,A
001A A3                INC     DPTR
001B E0                MOVX    A,@DPTR
001C 900000      R     MOV     DPTR,#packet_data+03H
001F CF                XCH     A,R7
0020 F0                MOVX    @DPTR,A
0021 A3                INC     DPTR
0022 EF                MOV     A,R7
0023 F0                MOVX    @DPTR,A
                                           ; SOURCE LINE # 1019
0024 7B01              MOV     R3,#01H
0026 7A00        R     MOV     R2,#HIGH packet_data
0028 7900        R     MOV     R1,#LOW packet_data
002A 7D05              MOV     R5,#05H
002C 120000      E     LCALL   _LCRChecksum
002F 900000      R     MOV     DPTR,#packet_data+05H
0032 EF                MOV     A,R7
0033 F0                MOVX    @DPTR,A
                                           ; SOURCE LINE # 1021
0034 7B01              MOV     R3,#01H
0036 7A00        R     MOV     R2,#HIGH packet_data
0038 7900        R     MOV     R1,#LOW packet_data
003A E4                CLR     A
003B 900000      R     MOV     DPTR,#?_commWrite?BYTE+05H
003E F0                MOVX    @DPTR,A
003F 7D06              MOV     R5,#06H
0041 FC                MOV     R4,A
0042 120000      R     LCALL   _commWrite
                                           ; SOURCE LINE # 1022
0045 22                RET     
             ; FUNCTION cmd_get_currents (END)

             ; FUNCTION cmd_get_curr_and_meas (BEGIN)
                                           ; SOURCE LINE # 1024
                                           ; SOURCE LINE # 1033
0000 900000      R     MOV     DPTR,#packet_data
0003 7486              MOV     A,#086H
0005 F0                MOVX    @DPTR,A
                                           ; SOURCE LINE # 1036
0006 900000      E     MOV     DPTR,#g_measOld+08H
0009 E0                MOVX    A,@DPTR
000A FF                MOV     R7,A
C51 COMPILER V9.51   COMMAND_PROCESSING                                                    10/12/2016 17:30:47 PAGE 123 

000B A3                INC     DPTR
000C E0                MOVX    A,@DPTR
000D 900000      R     MOV     DPTR,#packet_data+01H
0010 CF                XCH     A,R7
0011 F0                MOVX    @DPTR,A
0012 A3                INC     DPTR
0013 EF                MOV     A,R7
0014 F0                MOVX    @DPTR,A
                                           ; SOURCE LINE # 1037
0015 900000      E     MOV     DPTR,#g_measOld+0AH
0018 E0                MOVX    A,@DPTR
0019 FF                MOV     R7,A
001A A3                INC     DPTR
001B E0                MOVX    A,@DPTR
001C 900000      R     MOV     DPTR,#packet_data+03H
001F CF                XCH     A,R7
0020 F0                MOVX    @DPTR,A
0021 A3                INC     DPTR
0022 EF                MOV     A,R7
0023 F0                MOVX    @DPTR,A
                                           ; SOURCE LINE # 1040
0024 750002      R     MOV     index,#02H
0027         ?C0213:
0027 AF00        R     MOV     R7,index
0029 1500        R     DEC     index
002B EF                MOV     A,R7
002C 6041              JZ      ?C0215
                                           ; SOURCE LINE # 1041
002E E500        R     MOV     A,index
0030 25E0              ADD     A,ACC
0032 25E0              ADD     A,ACC
0034 2400        E     ADD     A,#LOW g_measOld
0036 F582              MOV     DPL,A
0038 E4                CLR     A
0039 3400        E     ADDC    A,#HIGH g_measOld
003B F583              MOV     DPH,A
003D E0                MOVX    A,@DPTR
003E FC                MOV     R4,A
003F A3                INC     DPTR
0040 E0                MOVX    A,@DPTR
0041 FD                MOV     R5,A
0042 A3                INC     DPTR
0043 E0                MOVX    A,@DPTR
0044 FE                MOV     R6,A
0045 A3                INC     DPTR
0046 E0                MOVX    A,@DPTR
0047 FF                MOV     R7,A
0048 7400        E     MOV     A,#LOW g_mem+011H
004A 2500        R     ADD     A,index
004C F582              MOV     DPL,A
004E E4                CLR     A
004F 3400        E     ADDC    A,#HIGH g_mem+011H
0051 F583              MOV     DPH,A
0053 E0                MOVX    A,@DPTR
0054 F9                MOV     R1,A
0055 F8                MOV     R0,A
0056 120000      E     LCALL   ?C?SLSHR
0059 E500        R     MOV     A,index
005B 25E0              ADD     A,ACC
005D 25E0              ADD     A,ACC
005F 2400        R     ADD     A,#LOW packet_data+05H
0061 F582              MOV     DPL,A
C51 COMPILER V9.51   COMMAND_PROCESSING                                                    10/12/2016 17:30:47 PAGE 124 

0063 E4                CLR     A
0064 3400        R     ADDC    A,#HIGH packet_data+05H
0066 F583              MOV     DPH,A
0068 EE                MOV     A,R6
0069 F0                MOVX    @DPTR,A
006A A3                INC     DPTR
006B EF                MOV     A,R7
006C F0                MOVX    @DPTR,A
006D 80B8              SJMP    ?C0213
                                           ; SOURCE LINE # 1053
006F         ?C0215:
006F 22                RET     
             ; FUNCTION cmd_get_curr_and_meas (END)

             ; FUNCTION cmd_set_inputs (BEGIN)
                                           ; SOURCE LINE # 1055
                                           ; SOURCE LINE # 1058
0000 900000      E     MOV     DPTR,#g_rx+01H
0003 E0                MOVX    A,@DPTR
0004 FE                MOV     R6,A
0005 A3                INC     DPTR
0006 E0                MOVX    A,@DPTR
0007 FF                MOV     R7,A
0008 EE                MOV     A,R6
0009 33                RLC     A
000A 95E0              SUBB    A,ACC
000C FD                MOV     R5,A
000D FC                MOV     R4,A
000E 900000      E     MOV     DPTR,#g_refNew
0011 120000      E     LCALL   ?C?LSTXDATA
                                           ; SOURCE LINE # 1059
0014 900000      E     MOV     DPTR,#g_refNew
0017 E0                MOVX    A,@DPTR
0018 FC                MOV     R4,A
0019 A3                INC     DPTR
001A E0                MOVX    A,@DPTR
001B FD                MOV     R5,A
001C A3                INC     DPTR
001D E0                MOVX    A,@DPTR
001E FE                MOV     R6,A
001F A3                INC     DPTR
0020 E0                MOVX    A,@DPTR
0021 FF                MOV     R7,A
0022 900000      E     MOV     DPTR,#g_mem+011H
0025 E0                MOVX    A,@DPTR
0026 F9                MOV     R1,A
0027 F8                MOV     R0,A
0028 120000      E     LCALL   ?C?LSHL
002B 900000      E     MOV     DPTR,#g_refNew
002E 120000      E     LCALL   ?C?LSTXDATA
                                           ; SOURCE LINE # 1061
0031 900000      E     MOV     DPTR,#g_rx+03H
0034 E0                MOVX    A,@DPTR
0035 FE                MOV     R6,A
0036 A3                INC     DPTR
0037 E0                MOVX    A,@DPTR
0038 FF                MOV     R7,A
0039 EE                MOV     A,R6
003A 33                RLC     A
003B 95E0              SUBB    A,ACC
003D FD                MOV     R5,A
003E FC                MOV     R4,A
C51 COMPILER V9.51   COMMAND_PROCESSING                                                    10/12/2016 17:30:47 PAGE 125 

003F 900000      E     MOV     DPTR,#g_refNew+04H
0042 120000      E     LCALL   ?C?LSTXDATA
                                           ; SOURCE LINE # 1062
0045 900000      E     MOV     DPTR,#g_refNew+04H
0048 E0                MOVX    A,@DPTR
0049 FC                MOV     R4,A
004A A3                INC     DPTR
004B E0                MOVX    A,@DPTR
004C FD                MOV     R5,A
004D A3                INC     DPTR
004E E0                MOVX    A,@DPTR
004F FE                MOV     R6,A
0050 A3                INC     DPTR
0051 E0                MOVX    A,@DPTR
0052 FF                MOV     R7,A
0053 900000      E     MOV     DPTR,#g_mem+012H
0056 E0                MOVX    A,@DPTR
0057 F9                MOV     R1,A
0058 F8                MOV     R0,A
0059 120000      E     LCALL   ?C?LSHL
005C 900000      E     MOV     DPTR,#g_refNew+04H
005F 120000      E     LCALL   ?C?LSTXDATA
                                           ; SOURCE LINE # 1065
0062 900000      E     MOV     DPTR,#c_mem+023H
0065 E0                MOVX    A,@DPTR
0066 7003              JNZ     $ + 5H
0068 020000      R     LJMP    ?C0221
                                           ; SOURCE LINE # 1067
006B A3                INC     DPTR
006C E0                MOVX    A,@DPTR
006D FC                MOV     R4,A
006E A3                INC     DPTR
006F E0                MOVX    A,@DPTR
0070 FD                MOV     R5,A
0071 A3                INC     DPTR
0072 E0                MOVX    A,@DPTR
0073 FE                MOV     R6,A
0074 A3                INC     DPTR
0075 E0                MOVX    A,@DPTR
0076 FF                MOV     R7,A
0077 900000      E     MOV     DPTR,#g_refNew
007A E0                MOVX    A,@DPTR
007B F8                MOV     R0,A
007C A3                INC     DPTR
007D E0                MOVX    A,@DPTR
007E F9                MOV     R1,A
007F A3                INC     DPTR
0080 E0                MOVX    A,@DPTR
0081 FA                MOV     R2,A
0082 A3                INC     DPTR
0083 E0                MOVX    A,@DPTR
0084 FB                MOV     R3,A
0085 C3                CLR     C
0086 120000      E     LCALL   ?C?SLCMP
0089 5014              JNC     ?C0217
                                           ; SOURCE LINE # 1068
008B 900000      E     MOV     DPTR,#c_mem+024H
008E E0                MOVX    A,@DPTR
008F FC                MOV     R4,A
0090 A3                INC     DPTR
0091 E0                MOVX    A,@DPTR
0092 FD                MOV     R5,A
C51 COMPILER V9.51   COMMAND_PROCESSING                                                    10/12/2016 17:30:47 PAGE 126 

0093 A3                INC     DPTR
0094 E0                MOVX    A,@DPTR
0095 FE                MOV     R6,A
0096 A3                INC     DPTR
0097 E0                MOVX    A,@DPTR
0098 FF                MOV     R7,A
0099 900000      E     MOV     DPTR,#g_refNew
009C 120000      E     LCALL   ?C?LSTXDATA
009F         ?C0217:
                                           ; SOURCE LINE # 1069
009F 900000      E     MOV     DPTR,#c_mem+028H
00A2 E0                MOVX    A,@DPTR
00A3 FC                MOV     R4,A
00A4 A3                INC     DPTR
00A5 E0                MOVX    A,@DPTR
00A6 FD                MOV     R5,A
00A7 A3                INC     DPTR
00A8 E0                MOVX    A,@DPTR
00A9 FE                MOV     R6,A
00AA A3                INC     DPTR
00AB E0                MOVX    A,@DPTR
00AC FF                MOV     R7,A
00AD 900000      E     MOV     DPTR,#g_refNew+04H
00B0 E0                MOVX    A,@DPTR
00B1 F8                MOV     R0,A
00B2 A3                INC     DPTR
00B3 E0                MOVX    A,@DPTR
00B4 F9                MOV     R1,A
00B5 A3                INC     DPTR
00B6 E0                MOVX    A,@DPTR
00B7 FA                MOV     R2,A
00B8 A3                INC     DPTR
00B9 E0                MOVX    A,@DPTR
00BA FB                MOV     R3,A
00BB C3                CLR     C
00BC 120000      E     LCALL   ?C?SLCMP
00BF 5014              JNC     ?C0218
                                           ; SOURCE LINE # 1070
00C1 900000      E     MOV     DPTR,#c_mem+028H
00C4 E0                MOVX    A,@DPTR
00C5 FC                MOV     R4,A
00C6 A3                INC     DPTR
00C7 E0                MOVX    A,@DPTR
00C8 FD                MOV     R5,A
00C9 A3                INC     DPTR
00CA E0                MOVX    A,@DPTR
00CB FE                MOV     R6,A
00CC A3                INC     DPTR
00CD E0                MOVX    A,@DPTR
00CE FF                MOV     R7,A
00CF 900000      E     MOV     DPTR,#g_refNew+04H
00D2 120000      E     LCALL   ?C?LSTXDATA
00D5         ?C0218:
                                           ; SOURCE LINE # 1072
00D5 900000      E     MOV     DPTR,#c_mem+02CH
00D8 E0                MOVX    A,@DPTR
00D9 FC                MOV     R4,A
00DA A3                INC     DPTR
00DB E0                MOVX    A,@DPTR
00DC FD                MOV     R5,A
00DD A3                INC     DPTR
00DE E0                MOVX    A,@DPTR
C51 COMPILER V9.51   COMMAND_PROCESSING                                                    10/12/2016 17:30:47 PAGE 127 

00DF FE                MOV     R6,A
00E0 A3                INC     DPTR
00E1 E0                MOVX    A,@DPTR
00E2 FF                MOV     R7,A
00E3 900000      E     MOV     DPTR,#g_refNew
00E6 E0                MOVX    A,@DPTR
00E7 F8                MOV     R0,A
00E8 A3                INC     DPTR
00E9 E0                MOVX    A,@DPTR
00EA F9                MOV     R1,A
00EB A3                INC     DPTR
00EC E0                MOVX    A,@DPTR
00ED FA                MOV     R2,A
00EE A3                INC     DPTR
00EF E0                MOVX    A,@DPTR
00F0 FB                MOV     R3,A
00F1 D3                SETB    C
00F2 120000      E     LCALL   ?C?SLCMP
00F5 4014              JC      ?C0219
                                           ; SOURCE LINE # 1073
00F7 900000      E     MOV     DPTR,#c_mem+02CH
00FA E0                MOVX    A,@DPTR
00FB FC                MOV     R4,A
00FC A3                INC     DPTR
00FD E0                MOVX    A,@DPTR
00FE FD                MOV     R5,A
00FF A3                INC     DPTR
0100 E0                MOVX    A,@DPTR
0101 FE                MOV     R6,A
0102 A3                INC     DPTR
0103 E0                MOVX    A,@DPTR
0104 FF                MOV     R7,A
0105 900000      E     MOV     DPTR,#g_refNew
0108 120000      E     LCALL   ?C?LSTXDATA
010B         ?C0219:
                                           ; SOURCE LINE # 1074
010B 900000      E     MOV     DPTR,#c_mem+030H
010E E0                MOVX    A,@DPTR
010F FC                MOV     R4,A
0110 A3                INC     DPTR
0111 E0                MOVX    A,@DPTR
0112 FD                MOV     R5,A
0113 A3                INC     DPTR
0114 E0                MOVX    A,@DPTR
0115 FE                MOV     R6,A
0116 A3                INC     DPTR
0117 E0                MOVX    A,@DPTR
0118 FF                MOV     R7,A
0119 900000      E     MOV     DPTR,#g_refNew+04H
011C E0                MOVX    A,@DPTR
011D F8                MOV     R0,A
011E A3                INC     DPTR
011F E0                MOVX    A,@DPTR
0120 F9                MOV     R1,A
0121 A3                INC     DPTR
0122 E0                MOVX    A,@DPTR
0123 FA                MOV     R2,A
0124 A3                INC     DPTR
0125 E0                MOVX    A,@DPTR
0126 FB                MOV     R3,A
0127 D3                SETB    C
0128 120000      E     LCALL   ?C?SLCMP
C51 COMPILER V9.51   COMMAND_PROCESSING                                                    10/12/2016 17:30:47 PAGE 128 

012B 4014              JC      ?C0221
                                           ; SOURCE LINE # 1075
012D 900000      E     MOV     DPTR,#c_mem+030H
0130 E0                MOVX    A,@DPTR
0131 FC                MOV     R4,A
0132 A3                INC     DPTR
0133 E0                MOVX    A,@DPTR
0134 FD                MOV     R5,A
0135 A3                INC     DPTR
0136 E0                MOVX    A,@DPTR
0137 FE                MOV     R6,A
0138 A3                INC     DPTR
0139 E0                MOVX    A,@DPTR
013A FF                MOV     R7,A
013B 900000      E     MOV     DPTR,#g_refNew+04H
013E 120000      E     LCALL   ?C?LSTXDATA
                                           ; SOURCE LINE # 1076
                                           ; SOURCE LINE # 1077
0141         ?C0221:
0141 22                RET     
             ; FUNCTION cmd_set_inputs (END)

             ; FUNCTION cmd_get_velocities (BEGIN)
                                           ; SOURCE LINE # 1079
                                           ; SOURCE LINE # 1089
0000 900000      R     MOV     DPTR,#packet_data
0003 7489              MOV     A,#089H
0005 F0                MOVX    @DPTR,A
                                           ; SOURCE LINE # 1091
0006 750002      R     MOV     index,#02H
0009         ?C0222:
0009 AF00        R     MOV     R7,index
000B 1500        R     DEC     index
000D EF                MOV     A,R7
000E 6028              JZ      ?C0223
                                           ; SOURCE LINE # 1092
0010 E500        R     MOV     A,index
0012 25E0              ADD     A,ACC
0014 2400        E     ADD     A,#LOW g_measOld+0EH
0016 F582              MOV     DPL,A
0018 E4                CLR     A
0019 3400        E     ADDC    A,#HIGH g_measOld+0EH
001B F583              MOV     DPH,A
001D E0                MOVX    A,@DPTR
001E FE                MOV     R6,A
001F A3                INC     DPTR
0020 E0                MOVX    A,@DPTR
0021 FF                MOV     R7,A
0022 E500        R     MOV     A,index
0024 25E0              ADD     A,ACC
0026 25E0              ADD     A,ACC
0028 2400        R     ADD     A,#LOW packet_data+01H
002A F582              MOV     DPL,A
002C E4                CLR     A
002D 3400        R     ADDC    A,#HIGH packet_data+01H
002F F583              MOV     DPH,A
0031 EE                MOV     A,R6
0032 F0                MOVX    @DPTR,A
0033 A3                INC     DPTR
0034 EF                MOV     A,R7
0035 F0                MOVX    @DPTR,A
0036 80D1              SJMP    ?C0222
C51 COMPILER V9.51   COMMAND_PROCESSING                                                    10/12/2016 17:30:47 PAGE 129 

0038         ?C0223:
                                           ; SOURCE LINE # 1095
0038 7B01              MOV     R3,#01H
003A 7A00        R     MOV     R2,#HIGH packet_data
003C 7900        R     MOV     R1,#LOW packet_data
003E 7D05              MOV     R5,#05H
0040 120000      E     LCALL   _LCRChecksum
0043 900000      R     MOV     DPTR,#packet_data+05H
0046 EF                MOV     A,R7
0047 F0                MOVX    @DPTR,A
                                           ; SOURCE LINE # 1096
0048 7B01              MOV     R3,#01H
004A 7A00        R     MOV     R2,#HIGH packet_data
004C 7900        R     MOV     R1,#LOW packet_data
004E E4                CLR     A
004F 900000      R     MOV     DPTR,#?_commWrite?BYTE+05H
0052 F0                MOVX    @DPTR,A
0053 7D06              MOV     R5,#06H
0055 FC                MOV     R4,A
0056 120000      R     LCALL   _commWrite
                                           ; SOURCE LINE # 1097
0059 22                RET     
             ; FUNCTION cmd_get_velocities (END)

             ; FUNCTION cmd_activate (BEGIN)
                                           ; SOURCE LINE # 1099
                                           ; SOURCE LINE # 1102
0000 900000      E     MOV     DPTR,#g_rx+01H
0003 E0                MOVX    A,@DPTR
0004 900000      E     MOV     DPTR,#g_refNew+08H
0007 F0                MOVX    @DPTR,A
                                           ; SOURCE LINE # 1105
0008 900000      E     MOV     DPTR,#g_meas
000B E0                MOVX    A,@DPTR
000C FC                MOV     R4,A
000D A3                INC     DPTR
000E E0                MOVX    A,@DPTR
000F FD                MOV     R5,A
0010 A3                INC     DPTR
0011 E0                MOVX    A,@DPTR
0012 FE                MOV     R6,A
0013 A3                INC     DPTR
0014 E0                MOVX    A,@DPTR
0015 FF                MOV     R7,A
0016 900000      E     MOV     DPTR,#g_refNew
0019 120000      E     LCALL   ?C?LSTXDATA
                                           ; SOURCE LINE # 1106
001C 900000      E     MOV     DPTR,#g_meas+04H
001F E0                MOVX    A,@DPTR
0020 FC                MOV     R4,A
0021 A3                INC     DPTR
0022 E0                MOVX    A,@DPTR
0023 FD                MOV     R5,A
0024 A3                INC     DPTR
0025 E0                MOVX    A,@DPTR
0026 FE                MOV     R6,A
0027 A3                INC     DPTR
0028 E0                MOVX    A,@DPTR
0029 FF                MOV     R7,A
002A 900000      E     MOV     DPTR,#g_refNew+04H
002D 120000      E     LCALL   ?C?LSTXDATA
                                           ; SOURCE LINE # 1110
C51 COMPILER V9.51   COMMAND_PROCESSING                                                    10/12/2016 17:30:47 PAGE 130 

0030 900000      E     MOV     DPTR,#g_refNew+08H
0033 E0                MOVX    A,@DPTR
0034 FF                MOV     R7,A
0035 120000      E     LCALL   _MOTOR_ON_OFF_Write
                                           ; SOURCE LINE # 1112
0038 22                RET     
             ; FUNCTION cmd_activate (END)

             ; FUNCTION cmd_set_watchdog (BEGIN)
                                           ; SOURCE LINE # 1114
                                           ; SOURCE LINE # 1116
0000 900000      E     MOV     DPTR,#g_rx+01H
0003 E0                MOVX    A,@DPTR
0004 D3                SETB    C
0005 9400              SUBB    A,#00H
0007 500B              JNC     ?C0226
                                           ; SOURCE LINE # 1118
0009 7F01              MOV     R7,#01H
000B 120000      E     LCALL   _WATCHDOG_ENABLER_Write
                                           ; SOURCE LINE # 1119
000E E4                CLR     A
000F 900000      E     MOV     DPTR,#g_mem+037H
0012 F0                MOVX    @DPTR,A
                                           ; SOURCE LINE # 1120
0013 22                RET     
0014         ?C0226:
                                           ; SOURCE LINE # 1121
                                           ; SOURCE LINE # 1123
0014 900000      E     MOV     DPTR,#g_rx+01H
0017 E0                MOVX    A,@DPTR
0018 D3                SETB    C
0019 94FA              SUBB    A,#0FAH
001B 4003              JC      ?C0228
                                           ; SOURCE LINE # 1124
001D 74FA              MOV     A,#0FAH
001F F0                MOVX    @DPTR,A
0020         ?C0228:
                                           ; SOURCE LINE # 1129
0020 900000      E     MOV     DPTR,#g_rx+01H
0023 E0                MOVX    A,@DPTR
0024 FF                MOV     R7,A
0025 7E00              MOV     R6,#00H
0027 7C01              MOV     R4,#01H
0029 7DF4              MOV     R5,#0F4H
002B 120000      E     LCALL   ?C?LIMUL
002E 780A              MOV     R0,#0AH
0030 120000      E     LCALL   ?C?ULSHR
0033 900000      E     MOV     DPTR,#g_mem+037H
0036 EF                MOV     A,R7
0037 F0                MOVX    @DPTR,A
                                           ; SOURCE LINE # 1130
0038 120000      E     LCALL   _WATCHDOG_COUNTER_WritePeriod
                                           ; SOURCE LINE # 1131
003B E4                CLR     A
003C FF                MOV     R7,A
003D 120000      E     LCALL   _WATCHDOG_ENABLER_Write
                                           ; SOURCE LINE # 1132
                                           ; SOURCE LINE # 1133
0040         ?C0229:
0040 22                RET     
             ; FUNCTION cmd_set_watchdog (END)

C51 COMPILER V9.51   COMMAND_PROCESSING                                                    10/12/2016 17:30:47 PAGE 131 

             ; FUNCTION cmd_get_activate (BEGIN)
                                           ; SOURCE LINE # 1135
                                           ; SOURCE LINE # 1140
0000 900000      R     MOV     DPTR,#packet_data
0003 7481              MOV     A,#081H
0005 F0                MOVX    @DPTR,A
                                           ; SOURCE LINE # 1143
0006 900000      E     MOV     DPTR,#g_ref+08H
0009 E0                MOVX    A,@DPTR
000A 900000      R     MOV     DPTR,#packet_data+01H
000D F0                MOVX    @DPTR,A
                                           ; SOURCE LINE # 1146
000E 7B01              MOV     R3,#01H
0010 7A00        R     MOV     R2,#HIGH packet_data
0012 7900        R     MOV     R1,#LOW packet_data
0014 7D02              MOV     R5,#02H
0016 120000      E     LCALL   _LCRChecksum
0019 900000      R     MOV     DPTR,#packet_data+02H
001C EF                MOV     A,R7
001D F0                MOVX    @DPTR,A
                                           ; SOURCE LINE # 1149
001E 7B01              MOV     R3,#01H
0020 7A00        R     MOV     R2,#HIGH packet_data
0022 7900        R     MOV     R1,#LOW packet_data
0024 E4                CLR     A
0025 900000      R     MOV     DPTR,#?_commWrite?BYTE+05H
0028 F0                MOVX    @DPTR,A
0029 7D03              MOV     R5,#03H
002B FC                MOV     R4,A
002C 120000      R     LCALL   _commWrite
                                           ; SOURCE LINE # 1151
002F 22                RET     
             ; FUNCTION cmd_get_activate (END)

             ; FUNCTION cmd_ping (BEGIN)
                                           ; SOURCE LINE # 1153
                                           ; SOURCE LINE # 1158
0000 E4                CLR     A
0001 900000      R     MOV     DPTR,#packet_data
0004 F0                MOVX    @DPTR,A
                                           ; SOURCE LINE # 1161
0005 A3                INC     DPTR
0006 F0                MOVX    @DPTR,A
                                           ; SOURCE LINE # 1164
0007 7B01              MOV     R3,#01H
0009 7A00        R     MOV     R2,#HIGH packet_data
000B 7900        R     MOV     R1,#LOW packet_data
000D 900000      R     MOV     DPTR,#?_commWrite?BYTE+05H
0010 F0                MOVX    @DPTR,A
0011 7D02              MOV     R5,#02H
0013 FC                MOV     R4,A
0014 120000      R     LCALL   _commWrite
                                           ; SOURCE LINE # 1165
0017 22                RET     
             ; FUNCTION cmd_ping (END)

             ; FUNCTION cmd_store_params (BEGIN)
                                           ; SOURCE LINE # 1167
                                           ; SOURCE LINE # 1169
0000 750002      R     MOV     packet_lenght,#02H
                                           ; SOURCE LINE # 1173
0003 900000      E     MOV     DPTR,#g_mem+01BH
C51 COMPILER V9.51   COMMAND_PROCESSING                                                    10/12/2016 17:30:47 PAGE 132 

0006 E0                MOVX    A,@DPTR
0007 FC                MOV     R4,A
0008 A3                INC     DPTR
0009 E0                MOVX    A,@DPTR
000A FD                MOV     R5,A
000B A3                INC     DPTR
000C E0                MOVX    A,@DPTR
000D FE                MOV     R6,A
000E A3                INC     DPTR
000F E0                MOVX    A,@DPTR
0010 FF                MOV     R7,A
0011 900000      E     MOV     DPTR,#c_mem+01BH
0014 E0                MOVX    A,@DPTR
0015 F8                MOV     R0,A
0016 A3                INC     DPTR
0017 E0                MOVX    A,@DPTR
0018 F9                MOV     R1,A
0019 A3                INC     DPTR
001A E0                MOVX    A,@DPTR
001B FA                MOV     R2,A
001C A3                INC     DPTR
001D E0                MOVX    A,@DPTR
001E FB                MOV     R3,A
001F 120000      E     LCALL   ?C?FPCMP3
0022 6058              JZ      ?C0232
                                           ; SOURCE LINE # 1175
0024 900000      E     MOV     DPTR,#g_refNew
0027 E0                MOVX    A,@DPTR
0028 FC                MOV     R4,A
0029 A3                INC     DPTR
002A E0                MOVX    A,@DPTR
002B FD                MOV     R5,A
002C A3                INC     DPTR
002D E0                MOVX    A,@DPTR
002E FE                MOV     R6,A
002F A3                INC     DPTR
0030 E0                MOVX    A,@DPTR
0031 FF                MOV     R7,A
0032 EC                MOV     A,R4
0033 120000      E     LCALL   ?C?FCASTL
0036 900000      E     MOV     DPTR,#c_mem+01BH
0039 E0                MOVX    A,@DPTR
003A F8                MOV     R0,A
003B A3                INC     DPTR
003C E0                MOVX    A,@DPTR
003D F9                MOV     R1,A
003E A3                INC     DPTR
003F E0                MOVX    A,@DPTR
0040 FA                MOV     R2,A
0041 A3                INC     DPTR
0042 E0                MOVX    A,@DPTR
0043 FB                MOV     R3,A
0044 120000      E     LCALL   ?C?FPDIV
0047 120000      E     LCALL   ?C?CASTF
004A 900000      E     MOV     DPTR,#g_refNew
004D 120000      E     LCALL   ?C?LSTXDATA
                                           ; SOURCE LINE # 1177
0050 900000      E     MOV     DPTR,#g_refNew
0053 E0                MOVX    A,@DPTR
0054 FC                MOV     R4,A
0055 A3                INC     DPTR
0056 E0                MOVX    A,@DPTR
C51 COMPILER V9.51   COMMAND_PROCESSING                                                    10/12/2016 17:30:47 PAGE 133 

0057 FD                MOV     R5,A
0058 A3                INC     DPTR
0059 E0                MOVX    A,@DPTR
005A FE                MOV     R6,A
005B A3                INC     DPTR
005C E0                MOVX    A,@DPTR
005D FF                MOV     R7,A
005E EC                MOV     A,R4
005F 120000      E     LCALL   ?C?FCASTL
0062 900000      E     MOV     DPTR,#g_mem+01BH
0065 E0                MOVX    A,@DPTR
0066 F8                MOV     R0,A
0067 A3                INC     DPTR
0068 E0                MOVX    A,@DPTR
0069 F9                MOV     R1,A
006A A3                INC     DPTR
006B E0                MOVX    A,@DPTR
006C FA                MOV     R2,A
006D A3                INC     DPTR
006E E0                MOVX    A,@DPTR
006F FB                MOV     R3,A
0070 120000      E     LCALL   ?C?FPMUL
0073 120000      E     LCALL   ?C?CASTF
0076 900000      E     MOV     DPTR,#g_refNew
0079 120000      E     LCALL   ?C?LSTXDATA
                                           ; SOURCE LINE # 1178
007C         ?C0232:
                                           ; SOURCE LINE # 1180
007C 900000      E     MOV     DPTR,#g_mem+01FH
007F E0                MOVX    A,@DPTR
0080 FC                MOV     R4,A
0081 A3                INC     DPTR
0082 E0                MOVX    A,@DPTR
0083 FD                MOV     R5,A
0084 A3                INC     DPTR
0085 E0                MOVX    A,@DPTR
0086 FE                MOV     R6,A
0087 A3                INC     DPTR
0088 E0                MOVX    A,@DPTR
0089 FF                MOV     R7,A
008A 900000      E     MOV     DPTR,#c_mem+01FH
008D E0                MOVX    A,@DPTR
008E F8                MOV     R0,A
008F A3                INC     DPTR
0090 E0                MOVX    A,@DPTR
0091 F9                MOV     R1,A
0092 A3                INC     DPTR
0093 E0                MOVX    A,@DPTR
0094 FA                MOV     R2,A
0095 A3                INC     DPTR
0096 E0                MOVX    A,@DPTR
0097 FB                MOV     R3,A
0098 120000      E     LCALL   ?C?FPCMP3
009B 6058              JZ      ?C0233
                                           ; SOURCE LINE # 1182
009D 900000      E     MOV     DPTR,#g_refNew+04H
00A0 E0                MOVX    A,@DPTR
00A1 FC                MOV     R4,A
00A2 A3                INC     DPTR
00A3 E0                MOVX    A,@DPTR
00A4 FD                MOV     R5,A
00A5 A3                INC     DPTR
C51 COMPILER V9.51   COMMAND_PROCESSING                                                    10/12/2016 17:30:47 PAGE 134 

00A6 E0                MOVX    A,@DPTR
00A7 FE                MOV     R6,A
00A8 A3                INC     DPTR
00A9 E0                MOVX    A,@DPTR
00AA FF                MOV     R7,A
00AB EC                MOV     A,R4
00AC 120000      E     LCALL   ?C?FCASTL
00AF 900000      E     MOV     DPTR,#c_mem+01FH
00B2 E0                MOVX    A,@DPTR
00B3 F8                MOV     R0,A
00B4 A3                INC     DPTR
00B5 E0                MOVX    A,@DPTR
00B6 F9                MOV     R1,A
00B7 A3                INC     DPTR
00B8 E0                MOVX    A,@DPTR
00B9 FA                MOV     R2,A
00BA A3                INC     DPTR
00BB E0                MOVX    A,@DPTR
00BC FB                MOV     R3,A
00BD 120000      E     LCALL   ?C?FPDIV
00C0 120000      E     LCALL   ?C?CASTF
00C3 900000      E     MOV     DPTR,#g_refNew+04H
00C6 120000      E     LCALL   ?C?LSTXDATA
                                           ; SOURCE LINE # 1184
00C9 900000      E     MOV     DPTR,#g_refNew+04H
00CC E0                MOVX    A,@DPTR
00CD FC                MOV     R4,A
00CE A3                INC     DPTR
00CF E0                MOVX    A,@DPTR
00D0 FD                MOV     R5,A
00D1 A3                INC     DPTR
00D2 E0                MOVX    A,@DPTR
00D3 FE                MOV     R6,A
00D4 A3                INC     DPTR
00D5 E0                MOVX    A,@DPTR
00D6 FF                MOV     R7,A
00D7 EC                MOV     A,R4
00D8 120000      E     LCALL   ?C?FCASTL
00DB 900000      E     MOV     DPTR,#g_mem+01FH
00DE E0                MOVX    A,@DPTR
00DF F8                MOV     R0,A
00E0 A3                INC     DPTR
00E1 E0                MOVX    A,@DPTR
00E2 F9                MOV     R1,A
00E3 A3                INC     DPTR
00E4 E0                MOVX    A,@DPTR
00E5 FA                MOV     R2,A
00E6 A3                INC     DPTR
00E7 E0                MOVX    A,@DPTR
00E8 FB                MOV     R3,A
00E9 120000      E     LCALL   ?C?FPMUL
00EC 120000      E     LCALL   ?C?CASTF
00EF 900000      E     MOV     DPTR,#g_refNew+04H
00F2 120000      E     LCALL   ?C?LSTXDATA
                                           ; SOURCE LINE # 1185
00F5         ?C0233:
                                           ; SOURCE LINE # 1187
00F5 900000      E     MOV     DPTR,#g_mem+013H
00F8 E0                MOVX    A,@DPTR
00F9 FC                MOV     R4,A
00FA A3                INC     DPTR
00FB E0                MOVX    A,@DPTR
C51 COMPILER V9.51   COMMAND_PROCESSING                                                    10/12/2016 17:30:47 PAGE 135 

00FC FD                MOV     R5,A
00FD A3                INC     DPTR
00FE E0                MOVX    A,@DPTR
00FF FE                MOV     R6,A
0100 A3                INC     DPTR
0101 E0                MOVX    A,@DPTR
0102 FF                MOV     R7,A
0103 900000      E     MOV     DPTR,#c_mem+013H
0106 E0                MOVX    A,@DPTR
0107 F8                MOV     R0,A
0108 A3                INC     DPTR
0109 E0                MOVX    A,@DPTR
010A F9                MOV     R1,A
010B A3                INC     DPTR
010C E0                MOVX    A,@DPTR
010D FA                MOV     R2,A
010E A3                INC     DPTR
010F E0                MOVX    A,@DPTR
0110 FB                MOV     R3,A
0111 C3                CLR     C
0112 120000      E     LCALL   ?C?SLCMP
0115 6057              JZ      ?C0234
                                           ; SOURCE LINE # 1188
0117 900000      E     MOV     DPTR,#g_refNew
011A E0                MOVX    A,@DPTR
011B F8                MOV     R0,A
011C A3                INC     DPTR
011D E0                MOVX    A,@DPTR
011E F9                MOV     R1,A
011F A3                INC     DPTR
0120 E0                MOVX    A,@DPTR
0121 FA                MOV     R2,A
0122 A3                INC     DPTR
0123 E0                MOVX    A,@DPTR
0124 FB                MOV     R3,A
0125 C000              PUSH    AR0
0127 C001              PUSH    AR1
0129 C002              PUSH    AR2
012B C003              PUSH    AR3
012D 900000      E     MOV     DPTR,#c_mem+013H
0130 E0                MOVX    A,@DPTR
0131 F8                MOV     R0,A
0132 A3                INC     DPTR
0133 E0                MOVX    A,@DPTR
0134 F9                MOV     R1,A
0135 A3                INC     DPTR
0136 E0                MOVX    A,@DPTR
0137 FA                MOV     R2,A
0138 A3                INC     DPTR
0139 E0                MOVX    A,@DPTR
013A FB                MOV     R3,A
013B 900000      E     MOV     DPTR,#g_mem+013H
013E E0                MOVX    A,@DPTR
013F FC                MOV     R4,A
0140 A3                INC     DPTR
0141 E0                MOVX    A,@DPTR
0142 FD                MOV     R5,A
0143 A3                INC     DPTR
0144 E0                MOVX    A,@DPTR
0145 FE                MOV     R6,A
0146 A3                INC     DPTR
0147 E0                MOVX    A,@DPTR
C51 COMPILER V9.51   COMMAND_PROCESSING                                                    10/12/2016 17:30:47 PAGE 136 

0148 C3                CLR     C
0149 9B                SUBB    A,R3
014A FF                MOV     R7,A
014B EE                MOV     A,R6
014C 9A                SUBB    A,R2
014D FE                MOV     R6,A
014E ED                MOV     A,R5
014F 99                SUBB    A,R1
0150 FD                MOV     R5,A
0151 EC                MOV     A,R4
0152 98                SUBB    A,R0
0153 FC                MOV     R4,A
0154 D003              POP     AR3
0156 D002              POP     AR2
0158 D001              POP     AR1
015A D000              POP     AR0
015C EB                MOV     A,R3
015D 2F                ADD     A,R7
015E FF                MOV     R7,A
015F EA                MOV     A,R2
0160 3E                ADDC    A,R6
0161 FE                MOV     R6,A
0162 E9                MOV     A,R1
0163 3D                ADDC    A,R5
0164 FD                MOV     R5,A
0165 E8                MOV     A,R0
0166 3C                ADDC    A,R4
0167 FC                MOV     R4,A
0168 900000      E     MOV     DPTR,#g_refNew
016B 120000      E     LCALL   ?C?LSTXDATA
016E         ?C0234:
                                           ; SOURCE LINE # 1190
016E 900000      E     MOV     DPTR,#g_mem+017H
0171 E0                MOVX    A,@DPTR
0172 FC                MOV     R4,A
0173 A3                INC     DPTR
0174 E0                MOVX    A,@DPTR
0175 FD                MOV     R5,A
0176 A3                INC     DPTR
0177 E0                MOVX    A,@DPTR
0178 FE                MOV     R6,A
0179 A3                INC     DPTR
017A E0                MOVX    A,@DPTR
017B FF                MOV     R7,A
017C 900000      E     MOV     DPTR,#c_mem+017H
017F E0                MOVX    A,@DPTR
0180 F8                MOV     R0,A
0181 A3                INC     DPTR
0182 E0                MOVX    A,@DPTR
0183 F9                MOV     R1,A
0184 A3                INC     DPTR
0185 E0                MOVX    A,@DPTR
0186 FA                MOV     R2,A
0187 A3                INC     DPTR
0188 E0                MOVX    A,@DPTR
0189 FB                MOV     R3,A
018A C3                CLR     C
018B 120000      E     LCALL   ?C?SLCMP
018E 6057              JZ      ?C0235
                                           ; SOURCE LINE # 1191
0190 900000      E     MOV     DPTR,#g_refNew+04H
0193 E0                MOVX    A,@DPTR
C51 COMPILER V9.51   COMMAND_PROCESSING                                                    10/12/2016 17:30:47 PAGE 137 

0194 F8                MOV     R0,A
0195 A3                INC     DPTR
0196 E0                MOVX    A,@DPTR
0197 F9                MOV     R1,A
0198 A3                INC     DPTR
0199 E0                MOVX    A,@DPTR
019A FA                MOV     R2,A
019B A3                INC     DPTR
019C E0                MOVX    A,@DPTR
019D FB                MOV     R3,A
019E C000              PUSH    AR0
01A0 C001              PUSH    AR1
01A2 C002              PUSH    AR2
01A4 C003              PUSH    AR3
01A6 900000      E     MOV     DPTR,#c_mem+017H
01A9 E0                MOVX    A,@DPTR
01AA F8                MOV     R0,A
01AB A3                INC     DPTR
01AC E0                MOVX    A,@DPTR
01AD F9                MOV     R1,A
01AE A3                INC     DPTR
01AF E0                MOVX    A,@DPTR
01B0 FA                MOV     R2,A
01B1 A3                INC     DPTR
01B2 E0                MOVX    A,@DPTR
01B3 FB                MOV     R3,A
01B4 900000      E     MOV     DPTR,#g_mem+017H
01B7 E0                MOVX    A,@DPTR
01B8 FC                MOV     R4,A
01B9 A3                INC     DPTR
01BA E0                MOVX    A,@DPTR
01BB FD                MOV     R5,A
01BC A3                INC     DPTR
01BD E0                MOVX    A,@DPTR
01BE FE                MOV     R6,A
01BF A3                INC     DPTR
01C0 E0                MOVX    A,@DPTR
01C1 C3                CLR     C
01C2 9B                SUBB    A,R3
01C3 FF                MOV     R7,A
01C4 EE                MOV     A,R6
01C5 9A                SUBB    A,R2
01C6 FE                MOV     R6,A
01C7 ED                MOV     A,R5
01C8 99                SUBB    A,R1
01C9 FD                MOV     R5,A
01CA EC                MOV     A,R4
01CB 98                SUBB    A,R0
01CC FC                MOV     R4,A
01CD D003              POP     AR3
01CF D002              POP     AR2
01D1 D001              POP     AR1
01D3 D000              POP     AR0
01D5 EB                MOV     A,R3
01D6 2F                ADD     A,R7
01D7 FF                MOV     R7,A
01D8 EA                MOV     A,R2
01D9 3E                ADDC    A,R6
01DA FE                MOV     R6,A
01DB E9                MOV     A,R1
01DC 3D                ADDC    A,R5
01DD FD                MOV     R5,A
C51 COMPILER V9.51   COMMAND_PROCESSING                                                    10/12/2016 17:30:47 PAGE 138 

01DE E8                MOV     A,R0
01DF 3C                ADDC    A,R4
01E0 FC                MOV     R4,A
01E1 900000      E     MOV     DPTR,#g_refNew+04H
01E4 120000      E     LCALL   ?C?LSTXDATA
01E7         ?C0235:
                                           ; SOURCE LINE # 1194
01E7 900000      E     MOV     DPTR,#c_mem+023H
01EA E0                MOVX    A,@DPTR
01EB 7003              JNZ     $ + 5H
01ED 020000      R     LJMP    ?C0236
                                           ; SOURCE LINE # 1195
01F0 A3                INC     DPTR
01F1 E0                MOVX    A,@DPTR
01F2 FC                MOV     R4,A
01F3 A3                INC     DPTR
01F4 E0                MOVX    A,@DPTR
01F5 FD                MOV     R5,A
01F6 A3                INC     DPTR
01F7 E0                MOVX    A,@DPTR
01F8 FE                MOV     R6,A
01F9 A3                INC     DPTR
01FA E0                MOVX    A,@DPTR
01FB FF                MOV     R7,A
01FC 900000      E     MOV     DPTR,#g_refNew
01FF E0                MOVX    A,@DPTR
0200 F8                MOV     R0,A
0201 A3                INC     DPTR
0202 E0                MOVX    A,@DPTR
0203 F9                MOV     R1,A
0204 A3                INC     DPTR
0205 E0                MOVX    A,@DPTR
0206 FA                MOV     R2,A
0207 A3                INC     DPTR
0208 E0                MOVX    A,@DPTR
0209 FB                MOV     R3,A
020A C3                CLR     C
020B 120000      E     LCALL   ?C?SLCMP
020E 5014              JNC     ?C0237
0210 900000      E     MOV     DPTR,#c_mem+024H
0213 E0                MOVX    A,@DPTR
0214 FC                MOV     R4,A
0215 A3                INC     DPTR
0216 E0                MOVX    A,@DPTR
0217 FD                MOV     R5,A
0218 A3                INC     DPTR
0219 E0                MOVX    A,@DPTR
021A FE                MOV     R6,A
021B A3                INC     DPTR
021C E0                MOVX    A,@DPTR
021D FF                MOV     R7,A
021E 900000      E     MOV     DPTR,#g_refNew
0221 120000      E     LCALL   ?C?LSTXDATA
0224         ?C0237:
                                           ; SOURCE LINE # 1196
0224 900000      E     MOV     DPTR,#c_mem+028H
0227 E0                MOVX    A,@DPTR
0228 FC                MOV     R4,A
0229 A3                INC     DPTR
022A E0                MOVX    A,@DPTR
022B FD                MOV     R5,A
022C A3                INC     DPTR
C51 COMPILER V9.51   COMMAND_PROCESSING                                                    10/12/2016 17:30:47 PAGE 139 

022D E0                MOVX    A,@DPTR
022E FE                MOV     R6,A
022F A3                INC     DPTR
0230 E0                MOVX    A,@DPTR
0231 FF                MOV     R7,A
0232 900000      E     MOV     DPTR,#g_refNew+04H
0235 E0                MOVX    A,@DPTR
0236 F8                MOV     R0,A
0237 A3                INC     DPTR
0238 E0                MOVX    A,@DPTR
0239 F9                MOV     R1,A
023A A3                INC     DPTR
023B E0                MOVX    A,@DPTR
023C FA                MOV     R2,A
023D A3                INC     DPTR
023E E0                MOVX    A,@DPTR
023F FB                MOV     R3,A
0240 C3                CLR     C
0241 120000      E     LCALL   ?C?SLCMP
0244 5014              JNC     ?C0238
0246 900000      E     MOV     DPTR,#c_mem+028H
0249 E0                MOVX    A,@DPTR
024A FC                MOV     R4,A
024B A3                INC     DPTR
024C E0                MOVX    A,@DPTR
024D FD                MOV     R5,A
024E A3                INC     DPTR
024F E0                MOVX    A,@DPTR
0250 FE                MOV     R6,A
0251 A3                INC     DPTR
0252 E0                MOVX    A,@DPTR
0253 FF                MOV     R7,A
0254 900000      E     MOV     DPTR,#g_refNew+04H
0257 120000      E     LCALL   ?C?LSTXDATA
025A         ?C0238:
                                           ; SOURCE LINE # 1198
025A 900000      E     MOV     DPTR,#c_mem+02CH
025D E0                MOVX    A,@DPTR
025E FC                MOV     R4,A
025F A3                INC     DPTR
0260 E0                MOVX    A,@DPTR
0261 FD                MOV     R5,A
0262 A3                INC     DPTR
0263 E0                MOVX    A,@DPTR
0264 FE                MOV     R6,A
0265 A3                INC     DPTR
0266 E0                MOVX    A,@DPTR
0267 FF                MOV     R7,A
0268 900000      E     MOV     DPTR,#g_refNew
026B E0                MOVX    A,@DPTR
026C F8                MOV     R0,A
026D A3                INC     DPTR
026E E0                MOVX    A,@DPTR
026F F9                MOV     R1,A
0270 A3                INC     DPTR
0271 E0                MOVX    A,@DPTR
0272 FA                MOV     R2,A
0273 A3                INC     DPTR
0274 E0                MOVX    A,@DPTR
0275 FB                MOV     R3,A
0276 D3                SETB    C
0277 120000      E     LCALL   ?C?SLCMP
C51 COMPILER V9.51   COMMAND_PROCESSING                                                    10/12/2016 17:30:47 PAGE 140 

027A 4014              JC      ?C0239
027C 900000      E     MOV     DPTR,#c_mem+02CH
027F E0                MOVX    A,@DPTR
0280 FC                MOV     R4,A
0281 A3                INC     DPTR
0282 E0                MOVX    A,@DPTR
0283 FD                MOV     R5,A
0284 A3                INC     DPTR
0285 E0                MOVX    A,@DPTR
0286 FE                MOV     R6,A
0287 A3                INC     DPTR
0288 E0                MOVX    A,@DPTR
0289 FF                MOV     R7,A
028A 900000      E     MOV     DPTR,#g_refNew
028D 120000      E     LCALL   ?C?LSTXDATA
0290         ?C0239:
                                           ; SOURCE LINE # 1199
0290 900000      E     MOV     DPTR,#c_mem+030H
0293 E0                MOVX    A,@DPTR
0294 FC                MOV     R4,A
0295 A3                INC     DPTR
0296 E0                MOVX    A,@DPTR
0297 FD                MOV     R5,A
0298 A3                INC     DPTR
0299 E0                MOVX    A,@DPTR
029A FE                MOV     R6,A
029B A3                INC     DPTR
029C E0                MOVX    A,@DPTR
029D FF                MOV     R7,A
029E 900000      E     MOV     DPTR,#g_refNew+04H
02A1 E0                MOVX    A,@DPTR
02A2 F8                MOV     R0,A
02A3 A3                INC     DPTR
02A4 E0                MOVX    A,@DPTR
02A5 F9                MOV     R1,A
02A6 A3                INC     DPTR
02A7 E0                MOVX    A,@DPTR
02A8 FA                MOV     R2,A
02A9 A3                INC     DPTR
02AA E0                MOVX    A,@DPTR
02AB FB                MOV     R3,A
02AC D3                SETB    C
02AD 120000      E     LCALL   ?C?SLCMP
02B0 4014              JC      ?C0236
02B2 900000      E     MOV     DPTR,#c_mem+030H
02B5 E0                MOVX    A,@DPTR
02B6 FC                MOV     R4,A
02B7 A3                INC     DPTR
02B8 E0                MOVX    A,@DPTR
02B9 FD                MOV     R5,A
02BA A3                INC     DPTR
02BB E0                MOVX    A,@DPTR
02BC FE                MOV     R6,A
02BD A3                INC     DPTR
02BE E0                MOVX    A,@DPTR
02BF FF                MOV     R7,A
02C0 900000      E     MOV     DPTR,#g_refNew+04H
02C3 120000      E     LCALL   ?C?LSTXDATA
                                           ; SOURCE LINE # 1200
02C6         ?C0236:
                                           ; SOURCE LINE # 1203
02C6 900000      E     MOV     DPTR,#g_mem+01H
C51 COMPILER V9.51   COMMAND_PROCESSING                                                    10/12/2016 17:30:47 PAGE 141 

02C9 E0                MOVX    A,@DPTR
02CA FF                MOV     R7,A
02CB 900000      E     MOV     DPTR,#c_mem+01H
02CE E0                MOVX    A,@DPTR
02CF FE                MOV     R6,A
02D0 6F                XRL     A,R7
02D1 603F              JZ      ?C0241
                                           ; SOURCE LINE # 1204
02D3 8E00        R     MOV     old_id,R6
                                           ; SOURCE LINE # 1205
02D5 E4                CLR     A
02D6 FF                MOV     R7,A
02D7 FE                MOV     R6,A
02D8 120000      R     LCALL   _memStore
02DB EF                MOV     A,R7
02DC 601B              JZ      ?C0242
                                           ; SOURCE LINE # 1206
02DE 750001      R     MOV     packet_data,#01H
                                           ; SOURCE LINE # 1207
02E1 750001      R     MOV     packet_data+01H,#01H
                                           ; SOURCE LINE # 1208
02E4 7B00              MOV     R3,#00H
02E6 7A00        R     MOV     R2,#HIGH packet_data
02E8 7900        R     MOV     R1,#LOW packet_data
02EA E500        R     MOV     A,packet_lenght
02EC FD                MOV     R5,A
02ED 7C00              MOV     R4,#00H
02EF 900000      R     MOV     DPTR,#?_commWrite_old_id?BYTE+05H
02F2 E500        R     MOV     A,old_id
02F4 F0                MOVX    @DPTR,A
02F5 120000      R     LCALL   _commWrite_old_id
                                           ; SOURCE LINE # 1209
02F8 22                RET     
02F9         ?C0242:
                                           ; SOURCE LINE # 1210
                                           ; SOURCE LINE # 1211
02F9 E4                CLR     A
02FA F500        R     MOV     packet_data,A
                                           ; SOURCE LINE # 1212
02FC F500        R     MOV     packet_data+01H,A
                                           ; SOURCE LINE # 1213
02FE FB                MOV     R3,A
02FF 7A00        R     MOV     R2,#HIGH packet_data
0301 7900        R     MOV     R1,#LOW packet_data
0303 E500        R     MOV     A,packet_lenght
0305 FD                MOV     R5,A
0306 7C00              MOV     R4,#00H
0308 900000      R     MOV     DPTR,#?_commWrite_old_id?BYTE+05H
030B E500        R     MOV     A,old_id
030D F0                MOVX    @DPTR,A
030E 120000      R     LCALL   _commWrite_old_id
                                           ; SOURCE LINE # 1214
                                           ; SOURCE LINE # 1215
0311 22                RET     
0312         ?C0241:
                                           ; SOURCE LINE # 1216
                                           ; SOURCE LINE # 1217
0312 E4                CLR     A
0313 FF                MOV     R7,A
0314 FE                MOV     R6,A
0315 120000      R     LCALL   _memStore
0318 EF                MOV     A,R7
C51 COMPILER V9.51   COMMAND_PROCESSING                                                    10/12/2016 17:30:47 PAGE 142 

0319 6006              JZ      ?C0245
                                           ; SOURCE LINE # 1218
031B 7F01              MOV     R7,#01H
031D 120000      R     LCALL   _sendAcknowledgment
                                           ; SOURCE LINE # 1219
0320 22                RET     
0321         ?C0245:
                                           ; SOURCE LINE # 1220
0321 E4                CLR     A
0322 FF                MOV     R7,A
0323 120000      R     LCALL   _sendAcknowledgment
                                           ; SOURCE LINE # 1221
                                           ; SOURCE LINE # 1222
                                           ; SOURCE LINE # 1223
0326         ?C0247:
0326 22                RET     
             ; FUNCTION cmd_store_params (END)

             ; FUNCTION cmd_set_baudrate (BEGIN)
                                           ; SOURCE LINE # 1225
                                           ; SOURCE LINE # 1228
0000 900000      E     MOV     DPTR,#g_rx+01H
0003 E0                MOVX    A,@DPTR
0004 900000      E     MOV     DPTR,#c_mem+036H
0007 F0                MOVX    @DPTR,A
                                           ; SOURCE LINE # 1230
0008 24F3              ADD     A,#0F3H
000A 700A              JNZ     ?C0250
                                           ; SOURCE LINE # 1231
000C         ?C0249:
                                           ; SOURCE LINE # 1232
000C 7D01              MOV     R5,#01H
000E 7F0C              MOV     R7,#0CH
0010 7E00              MOV     R6,#00H
0012 120000      E     LCALL   _CLOCK_UART_SetDividerRegister
                                           ; SOURCE LINE # 1233
0015 22                RET     
                                           ; SOURCE LINE # 1234
0016         ?C0250:
                                           ; SOURCE LINE # 1235
0016 7D01              MOV     R5,#01H
0018 7F02              MOV     R7,#02H
001A 7E00              MOV     R6,#00H
001C 120000      E     LCALL   _CLOCK_UART_SetDividerRegister
                                           ; SOURCE LINE # 1236
                                           ; SOURCE LINE # 1237
001F         ?C0251:
001F 22                RET     
             ; FUNCTION cmd_set_baudrate (END)

             ; FUNCTION cmd_get_ir (BEGIN)
                                           ; SOURCE LINE # 1239
                                           ; SOURCE LINE # 1241
0000 750004      R     MOV     packet_lenght,#04H
                                           ; SOURCE LINE # 1244
0003 750093      R     MOV     packet_data,#093H
                                           ; SOURCE LINE # 1245
0006 900000      E     MOV     DPTR,#g_measOld+016H
0009 E0                MOVX    A,@DPTR
000A F500        R     MOV     packet_data+01H,A
000C A3                INC     DPTR
000D E0                MOVX    A,@DPTR
C51 COMPILER V9.51   COMMAND_PROCESSING                                                    10/12/2016 17:30:47 PAGE 143 

000E F500        R     MOV     packet_data+02H,A
                                           ; SOURCE LINE # 1246
0010 7B00              MOV     R3,#00H
0012 7A00        R     MOV     R2,#HIGH packet_data
0014 7900        R     MOV     R1,#LOW packet_data
0016 E500        R     MOV     A,packet_lenght
0018 14                DEC     A
0019 FD                MOV     R5,A
001A 120000      E     LCALL   _LCRChecksum
001D 8F00        R     MOV     packet_data+03H,R7
                                           ; SOURCE LINE # 1247
001F 7B00              MOV     R3,#00H
0021 7A00        R     MOV     R2,#HIGH packet_data
0023 7900        R     MOV     R1,#LOW packet_data
0025 E4                CLR     A
0026 900000      R     MOV     DPTR,#?_commWrite?BYTE+05H
0029 F0                MOVX    @DPTR,A
002A 7D04              MOV     R5,#04H
002C FC                MOV     R4,A
002D 120000      R     LCALL   _commWrite
                                           ; SOURCE LINE # 1248
0030 22                RET     
             ; FUNCTION cmd_get_ir (END)

             ; FUNCTION cmd_get_servo (BEGIN)
                                           ; SOURCE LINE # 1250
                                           ; SOURCE LINE # 1252
0000 750004      R     MOV     packet_lenght,#04H
                                           ; SOURCE LINE # 1255
0003 120000      E     LCALL   get_servo
                                           ; SOURCE LINE # 1256
0006 750095      R     MOV     packet_data,#095H
                                           ; SOURCE LINE # 1257
0009 900000      E     MOV     DPTR,#g_measOld+018H
000C E0                MOVX    A,@DPTR
000D F500        R     MOV     packet_data+01H,A
000F A3                INC     DPTR
0010 E0                MOVX    A,@DPTR
0011 F500        R     MOV     packet_data+02H,A
                                           ; SOURCE LINE # 1258
0013 7B00              MOV     R3,#00H
0015 7A00        R     MOV     R2,#HIGH packet_data
0017 7900        R     MOV     R1,#LOW packet_data
0019 E500        R     MOV     A,packet_lenght
001B 14                DEC     A
001C FD                MOV     R5,A
001D 120000      E     LCALL   _LCRChecksum
0020 8F00        R     MOV     packet_data+03H,R7
                                           ; SOURCE LINE # 1259
0022 7B00              MOV     R3,#00H
0024 7A00        R     MOV     R2,#HIGH packet_data
0026 7900        R     MOV     R1,#LOW packet_data
0028 E500        R     MOV     A,packet_lenght
002A FD                MOV     R5,A
002B 7C00              MOV     R4,#00H
002D E4                CLR     A
002E 900000      R     MOV     DPTR,#?_commWrite?BYTE+05H
0031 F0                MOVX    @DPTR,A
0032 120000      R     LCALL   _commWrite
                                           ; SOURCE LINE # 1260
0035 22                RET     
             ; FUNCTION cmd_get_servo (END)
C51 COMPILER V9.51   COMMAND_PROCESSING                                                    10/12/2016 17:30:47 PAGE 144 


             ; FUNCTION cmd_get_force (BEGIN)
                                           ; SOURCE LINE # 1262
                                           ; SOURCE LINE # 1264
0000 750004      R     MOV     packet_lenght,#04H
                                           ; SOURCE LINE # 1267
0003 750096      R     MOV     packet_data,#096H
                                           ; SOURCE LINE # 1268
0006 900000      E     MOV     DPTR,#g_measOld+01AH
0009 E0                MOVX    A,@DPTR
000A F500        R     MOV     packet_data+01H,A
000C A3                INC     DPTR
000D E0                MOVX    A,@DPTR
000E F500        R     MOV     packet_data+02H,A
                                           ; SOURCE LINE # 1269
0010 7B00              MOV     R3,#00H
0012 7A00        R     MOV     R2,#HIGH packet_data
0014 7900        R     MOV     R1,#LOW packet_data
0016 E500        R     MOV     A,packet_lenght
0018 14                DEC     A
0019 FD                MOV     R5,A
001A 120000      E     LCALL   _LCRChecksum
001D 8F00        R     MOV     packet_data+03H,R7
                                           ; SOURCE LINE # 1270
001F 7B00              MOV     R3,#00H
0021 7A00        R     MOV     R2,#HIGH packet_data
0023 7900        R     MOV     R1,#LOW packet_data
0025 E500        R     MOV     A,packet_lenght
0027 FD                MOV     R5,A
0028 7C00              MOV     R4,#00H
002A E4                CLR     A
002B 900000      R     MOV     DPTR,#?_commWrite?BYTE+05H
002E F0                MOVX    @DPTR,A
002F 120000      R     LCALL   _commWrite
                                           ; SOURCE LINE # 1271
0032 22                RET     
             ; FUNCTION cmd_get_force (END)

             ; FUNCTION cmd_get_duty_cy_max (BEGIN)
                                           ; SOURCE LINE # 1273
                                           ; SOURCE LINE # 1275
0000 750004      R     MOV     packet_lenght,#04H
                                           ; SOURCE LINE # 1278
0003 750097      R     MOV     packet_data,#097H
                                           ; SOURCE LINE # 1279
0006 900000      E     MOV     DPTR,#g_measOld+01CH
0009 E0                MOVX    A,@DPTR
000A FC                MOV     R4,A
000B A3                INC     DPTR
000C E0                MOVX    A,@DPTR
000D FD                MOV     R5,A
000E A3                INC     DPTR
000F E0                MOVX    A,@DPTR
0010 FE                MOV     R6,A
0011 A3                INC     DPTR
0012 E0                MOVX    A,@DPTR
0013 FF                MOV     R7,A
0014 120000      E     LCALL   ?C?CASTF
0017 8E00        R     MOV     packet_data+01H,R6
0019 8F00        R     MOV     packet_data+02H,R7
                                           ; SOURCE LINE # 1280
001B 7B00              MOV     R3,#00H
C51 COMPILER V9.51   COMMAND_PROCESSING                                                    10/12/2016 17:30:47 PAGE 145 

001D 7A00        R     MOV     R2,#HIGH packet_data
001F 7900        R     MOV     R1,#LOW packet_data
0021 E500        R     MOV     A,packet_lenght
0023 14                DEC     A
0024 FD                MOV     R5,A
0025 120000      E     LCALL   _LCRChecksum
0028 8F00        R     MOV     packet_data+03H,R7
                                           ; SOURCE LINE # 1281
002A 7B00              MOV     R3,#00H
002C 7A00        R     MOV     R2,#HIGH packet_data
002E 7900        R     MOV     R1,#LOW packet_data
0030 E500        R     MOV     A,packet_lenght
0032 FD                MOV     R5,A
0033 7C00              MOV     R4,#00H
0035 E4                CLR     A
0036 900000      R     MOV     DPTR,#?_commWrite?BYTE+05H
0039 F0                MOVX    @DPTR,A
003A 120000      R     LCALL   _commWrite
                                           ; SOURCE LINE # 1282
003D 22                RET     
             ; FUNCTION cmd_get_duty_cy_max (END)



MODULE INFORMATION:   STATIC OVERLAYABLE
   CODE SIZE        =  10552    ----
   CONSTANT SIZE    =   2391    ----
   XDATA SIZE       =      2    2952
   PDATA SIZE       =   ----    ----
   DATA SIZE        =   ----      49
   IDATA SIZE       =   ----    ----
   BIT SIZE         =   ----    ----
   EDATA SIZE       =   ----    ----
   HDATA SIZE       =   ----    ----
   XDATA CONST SIZE =   ----    ----
   FAR CONST SIZE   =   ----    ----
END OF MODULE INFORMATION.


C51 COMPILATION COMPLETE.  0 WARNING(S),  0 ERROR(S)
